
AVRSerial.elf:     file format elf32-avr

Sections:
Idx Name          Size      VMA       LMA       File off  Algn
  0 .data         0000007a  00800100  000018d0  00001964  2**0
                  CONTENTS, ALLOC, LOAD, DATA
  1 .text         000018d0  00000000  00000000  00000094  2**1
                  CONTENTS, ALLOC, LOAD, READONLY, CODE
  2 .bss          00000153  0080017a  0080017a  000019de  2**0
                  ALLOC
  3 .stab         000011dc  00000000  00000000  000019e0  2**2
                  CONTENTS, READONLY, DEBUGGING
  4 .stabstr      0000047e  00000000  00000000  00002bbc  2**0
                  CONTENTS, READONLY, DEBUGGING
  5 .debug_aranges 000005d0  00000000  00000000  00003040  2**3
                  CONTENTS, READONLY, DEBUGGING
  6 .debug_info   00009251  00000000  00000000  00003610  2**0
                  CONTENTS, READONLY, DEBUGGING
  7 .debug_abbrev 00002623  00000000  00000000  0000c861  2**0
                  CONTENTS, READONLY, DEBUGGING
  8 .debug_line   00004062  00000000  00000000  0000ee84  2**0
                  CONTENTS, READONLY, DEBUGGING
  9 .debug_frame  00000f64  00000000  00000000  00012ee8  2**2
                  CONTENTS, READONLY, DEBUGGING
 10 .debug_str    00003ae2  00000000  00000000  00013e4c  2**0
                  CONTENTS, READONLY, DEBUGGING
 11 .debug_loc    00005a1c  00000000  00000000  0001792e  2**0
                  CONTENTS, READONLY, DEBUGGING
 12 .debug_ranges 00000708  00000000  00000000  0001d34a  2**0
                  CONTENTS, READONLY, DEBUGGING

Disassembly of section .text:

00000000 <__vectors>:
       0:	a4 c0       	rjmp	.+328    	; 0x14a <__ctors_end>
       2:	00 00       	nop
       4:	be c0       	rjmp	.+380    	; 0x182 <__bad_interrupt>
       6:	00 00       	nop
       8:	bc c0       	rjmp	.+376    	; 0x182 <__bad_interrupt>
       a:	00 00       	nop
       c:	ba c0       	rjmp	.+372    	; 0x182 <__bad_interrupt>
       e:	00 00       	nop
      10:	b8 c0       	rjmp	.+368    	; 0x182 <__bad_interrupt>
      12:	00 00       	nop
      14:	b6 c0       	rjmp	.+364    	; 0x182 <__bad_interrupt>
      16:	00 00       	nop
      18:	b4 c0       	rjmp	.+360    	; 0x182 <__bad_interrupt>
      1a:	00 00       	nop
      1c:	b2 c0       	rjmp	.+356    	; 0x182 <__bad_interrupt>
      1e:	00 00       	nop
      20:	b0 c0       	rjmp	.+352    	; 0x182 <__bad_interrupt>
      22:	00 00       	nop
      24:	ae c0       	rjmp	.+348    	; 0x182 <__bad_interrupt>
      26:	00 00       	nop
      28:	b9 c4       	rjmp	.+2418   	; 0x99c <__vector_10>
      2a:	00 00       	nop
      2c:	7b c5       	rjmp	.+2806   	; 0xb24 <__vector_11>
      2e:	00 00       	nop
      30:	a8 c0       	rjmp	.+336    	; 0x182 <__bad_interrupt>
      32:	00 00       	nop
      34:	a6 c0       	rjmp	.+332    	; 0x182 <__bad_interrupt>
      36:	00 00       	nop
      38:	a4 c0       	rjmp	.+328    	; 0x182 <__bad_interrupt>
      3a:	00 00       	nop
      3c:	a2 c0       	rjmp	.+324    	; 0x182 <__bad_interrupt>
      3e:	00 00       	nop
      40:	a0 c0       	rjmp	.+320    	; 0x182 <__bad_interrupt>
      42:	00 00       	nop
      44:	9e c0       	rjmp	.+316    	; 0x182 <__bad_interrupt>
      46:	00 00       	nop
      48:	9c c0       	rjmp	.+312    	; 0x182 <__bad_interrupt>
      4a:	00 00       	nop
      4c:	9a c0       	rjmp	.+308    	; 0x182 <__bad_interrupt>
      4e:	00 00       	nop
      50:	98 c0       	rjmp	.+304    	; 0x182 <__bad_interrupt>
      52:	00 00       	nop
      54:	96 c0       	rjmp	.+300    	; 0x182 <__bad_interrupt>
      56:	00 00       	nop
      58:	94 c0       	rjmp	.+296    	; 0x182 <__bad_interrupt>
      5a:	00 00       	nop
      5c:	92 c0       	rjmp	.+292    	; 0x182 <__bad_interrupt>
      5e:	00 00       	nop
      60:	90 c0       	rjmp	.+288    	; 0x182 <__bad_interrupt>
      62:	00 00       	nop
      64:	a9 c1       	rjmp	.+850    	; 0x3b8 <__vector_25>
      66:	00 00       	nop
      68:	8c c0       	rjmp	.+280    	; 0x182 <__bad_interrupt>
      6a:	00 00       	nop
      6c:	8a c0       	rjmp	.+276    	; 0x182 <__bad_interrupt>
      6e:	00 00       	nop
      70:	88 c0       	rjmp	.+272    	; 0x182 <__bad_interrupt>
      72:	00 00       	nop
      74:	86 c0       	rjmp	.+268    	; 0x182 <__bad_interrupt>
      76:	00 00       	nop
      78:	84 c0       	rjmp	.+264    	; 0x182 <__bad_interrupt>
      7a:	00 00       	nop
      7c:	82 c0       	rjmp	.+260    	; 0x182 <__bad_interrupt>
      7e:	00 00       	nop
      80:	80 c0       	rjmp	.+256    	; 0x182 <__bad_interrupt>
      82:	00 00       	nop
      84:	7e c0       	rjmp	.+252    	; 0x182 <__bad_interrupt>
      86:	00 00       	nop
      88:	7c c0       	rjmp	.+248    	; 0x182 <__bad_interrupt>
      8a:	00 00       	nop
      8c:	7a c0       	rjmp	.+244    	; 0x182 <__bad_interrupt>
      8e:	00 00       	nop
      90:	78 c0       	rjmp	.+240    	; 0x182 <__bad_interrupt>
      92:	00 00       	nop
      94:	76 c0       	rjmp	.+236    	; 0x182 <__bad_interrupt>
      96:	00 00       	nop
      98:	74 c0       	rjmp	.+232    	; 0x182 <__bad_interrupt>
      9a:	00 00       	nop
      9c:	72 c0       	rjmp	.+228    	; 0x182 <__bad_interrupt>
      9e:	00 00       	nop
      a0:	70 c0       	rjmp	.+224    	; 0x182 <__bad_interrupt>
      a2:	00 00       	nop
      a4:	6e c0       	rjmp	.+220    	; 0x182 <__bad_interrupt>
      a6:	00 00       	nop
      a8:	6c c0       	rjmp	.+216    	; 0x182 <__bad_interrupt>
      aa:	00 00       	nop

000000ac <ProductString>:
      ac:	2e 03 4c 00 55 00 46 00 41 00 20 00 55 00 53 00     ..L.U.F.A. .U.S.
      bc:	42 00 2d 00 52 00 53 00 32 00 33 00 32 00 20 00     B.-.R.S.2.3.2. .
      cc:	41 00 64 00 61 00 70 00 74 00 65 00 72 00 00 00     A.d.a.p.t.e.r...

000000dc <ManufacturerString>:
      dc:	18 03 44 00 65 00 61 00 6e 00 20 00 43 00 61 00     ..D.e.a.n. .C.a.
      ec:	6d 00 65 00 72 00 61 00 00 00                       m.e.r.a...

000000f6 <LanguageString>:
      f6:	04 03 09 04                                         ....

000000fa <ConfigurationDescriptor>:
      fa:	09 02 3e 00 02 01 00 c0 32 09 04 00 00 01 02 02     ..>.....2.......
     10a:	01 00 05 24 00 10 01 04 24 02 06 05 24 06 00 01     ...$....$...$...
     11a:	07 05 82 03 08 00 ff 09 04 01 00 02 0a 00 00 00     ................
     12a:	07 05 04 02 10 00 05 07 05 83 02 10 00 05           ..............

00000138 <DeviceDescriptor>:
     138:	12 01 10 01 02 00 00 08 eb 03 4b 20 01 00 01 02     ..........K ....
     148:	dc 01                                               ..

0000014a <__ctors_end>:
     14a:	11 24       	eor	r1, r1
     14c:	1f be       	out	0x3f, r1	; 63
     14e:	cf ef       	ldi	r28, 0xFF	; 255
     150:	da e0       	ldi	r29, 0x0A	; 10
     152:	de bf       	out	0x3e, r29	; 62
     154:	cd bf       	out	0x3d, r28	; 61

00000156 <__do_copy_data>:
     156:	11 e0       	ldi	r17, 0x01	; 1
     158:	a0 e0       	ldi	r26, 0x00	; 0
     15a:	b1 e0       	ldi	r27, 0x01	; 1
     15c:	e0 ed       	ldi	r30, 0xD0	; 208
     15e:	f8 e1       	ldi	r31, 0x18	; 24
     160:	02 c0       	rjmp	.+4      	; 0x166 <__do_copy_data+0x10>
     162:	05 90       	lpm	r0, Z+
     164:	0d 92       	st	X+, r0
     166:	aa 37       	cpi	r26, 0x7A	; 122
     168:	b1 07       	cpc	r27, r17
     16a:	d9 f7       	brne	.-10     	; 0x162 <__do_copy_data+0xc>

0000016c <__do_clear_bss>:
     16c:	12 e0       	ldi	r17, 0x02	; 2
     16e:	aa e7       	ldi	r26, 0x7A	; 122
     170:	b1 e0       	ldi	r27, 0x01	; 1
     172:	01 c0       	rjmp	.+2      	; 0x176 <.do_clear_bss_start>

00000174 <.do_clear_bss_loop>:
     174:	1d 92       	st	X+, r1

00000176 <.do_clear_bss_start>:
     176:	ad 3c       	cpi	r26, 0xCD	; 205
     178:	b1 07       	cpc	r27, r17
     17a:	e1 f7       	brne	.-8      	; 0x174 <.do_clear_bss_loop>
     17c:	23 d0       	rcall	.+70     	; 0x1c4 <main>
     17e:	0c 94 66 0c 	jmp	0x18cc	; 0x18cc <_exit>

00000182 <__bad_interrupt>:
     182:	3e cf       	rjmp	.-388    	; 0x0 <__vectors>

00000184 <LEDs_SetAllLEDs>:
				PORTD &= ~LEDMask;
			}

			static inline void LEDs_SetAllLEDs(const uint8_t LEDMask)
			{
				PORTD = ((PORTD & ~LEDS_ALL_LEDS) | LEDMask);
     184:	9b b1       	in	r25, 0x0b	; 11
     186:	9f 70       	andi	r25, 0x0F	; 15
     188:	98 2b       	or	r25, r24
     18a:	9b b9       	out	0x0b, r25	; 11
			}
     18c:	08 95       	ret

0000018e <SetupHardware>:

/** Configures the board hardware and chip peripherals for the demo's functionality. */
void SetupHardware(void)
{
	/* Disable watchdog if enabled by bootloader/fuses */
	MCUSR &= ~(1 << WDRF);
     18e:	84 b7       	in	r24, 0x34	; 52
     190:	87 7f       	andi	r24, 0xF7	; 247
     192:	84 bf       	out	0x34, r24	; 52
	wdt_disable();
     194:	88 e1       	ldi	r24, 0x18	; 24
     196:	0f b6       	in	r0, 0x3f	; 63
     198:	f8 94       	cli
     19a:	80 93 60 00 	sts	0x0060, r24
     19e:	10 92 60 00 	sts	0x0060, r1
     1a2:	0f be       	out	0x3f, r0	; 63
The type of x is clock_div_t.
*/
void clock_prescale_set(clock_div_t __x)
{
    uint8_t __tmp = _BV(CLKPCE);
    __asm__ __volatile__ (
     1a4:	90 e0       	ldi	r25, 0x00	; 0
     1a6:	80 e8       	ldi	r24, 0x80	; 128
     1a8:	0f b6       	in	r0, 0x3f	; 63
     1aa:	f8 94       	cli
     1ac:	80 93 61 00 	sts	0x0061, r24
     1b0:	90 93 61 00 	sts	0x0061, r25
     1b4:	0f be       	out	0x3f, r0	; 63

		/* Inline Functions: */
		#if !defined(__DOXYGEN__)
			static inline void LEDs_Init(void)
			{
				DDRD  |=  LEDS_ALL_LEDS;
     1b6:	8a b1       	in	r24, 0x0a	; 10
     1b8:	80 6f       	ori	r24, 0xF0	; 240
     1ba:	8a b9       	out	0x0a, r24	; 10
				PORTD &= ~LEDS_ALL_LEDS;
     1bc:	8b b1       	in	r24, 0x0b	; 11
     1be:	8f 70       	andi	r24, 0x0F	; 15
     1c0:	8b b9       	out	0x0b, r24	; 11
	/* Disable clock division */
	clock_prescale_set(clock_div_1);

	/* Hardware Initialization */
	LEDs_Init();
	USB_Init();
     1c2:	cf c3       	rjmp	.+1950   	; 0x962 <USB_Init>

000001c4 <main>:
     1c4:	cf 93       	push	r28
}
     1c6:	df 93       	push	r29

/** Main program entry point. This routine contains the overall program flow, including initial
 *  setup of all components and the main program loop.
 */
int main(void)
{
     1c8:	cd b7       	in	r28, 0x3d	; 61
     1ca:	de b7       	in	r29, 0x3e	; 62
     1cc:	a8 97       	sbiw	r28, 0x28	; 40
     1ce:	0f b6       	in	r0, 0x3f	; 63
     1d0:	f8 94       	cli
     1d2:	de bf       	out	0x3e, r29	; 62
     1d4:	0f be       	out	0x3f, r0	; 63
     1d6:	cd bf       	out	0x3d, r28	; 61
    #define STRING_LENGTH 30
    char string[STRING_LENGTH];
    char *str = (char *)&string;
    char i = 0;
    
	SetupHardware();
     1d8:	da df       	rcall	.-76     	; 0x18e <SetupHardware>
     1da:	ed e7       	ldi	r30, 0x7D	; 125
		                                         const uint16_t Size) ATTR_NON_NULL_PTR_ARG(1) ATTR_NON_NULL_PTR_ARG(2);
		static inline void RingBuffer_InitBuffer(RingBuffer_t* Buffer,
		                                         uint8_t* const DataPtr,
		                                         const uint16_t Size)
		{
			GCC_FORCE_POINTER_ACCESS(Buffer);
     1dc:	f1 e0       	ldi	r31, 0x01	; 1
     1de:	2f b7       	in	r18, 0x3f	; 63
			static inline uint_reg_t GetGlobalInterruptMask(void)
			{
				GCC_MEMORY_BARRIER();

				#if (ARCH == ARCH_AVR8)
				return SREG;
     1e0:	f8 94       	cli
			static inline void GlobalInterruptDisable(void)
			{
				GCC_MEMORY_BARRIER();

				#if (ARCH == ARCH_AVR8)
				cli();
     1e2:	89 e8       	ldi	r24, 0x89	; 137

			uint_reg_t CurrentGlobalInt = GetGlobalInterruptMask();
			GlobalInterruptDisable();

			Buffer->In     = DataPtr;
     1e4:	91 e0       	ldi	r25, 0x01	; 1
     1e6:	91 83       	std	Z+1, r25	; 0x01
     1e8:	80 83       	st	Z, r24
     1ea:	93 83       	std	Z+3, r25	; 0x03
			Buffer->Out    = DataPtr;
     1ec:	82 83       	std	Z+2, r24	; 0x02
     1ee:	95 83       	std	Z+5, r25	; 0x05
			Buffer->Start  = &DataPtr[0];
     1f0:	84 83       	std	Z+4, r24	; 0x04
     1f2:	89 e0       	ldi	r24, 0x09	; 9
			Buffer->End    = &DataPtr[Size];
     1f4:	92 e0       	ldi	r25, 0x02	; 2
     1f6:	97 83       	std	Z+7, r25	; 0x07
     1f8:	86 83       	std	Z+6, r24	; 0x06
     1fa:	80 e8       	ldi	r24, 0x80	; 128
			Buffer->Size   = Size;
     1fc:	90 e0       	ldi	r25, 0x00	; 0
     1fe:	91 87       	std	Z+9, r25	; 0x09
     200:	80 87       	std	Z+8, r24	; 0x08
     202:	13 86       	std	Z+11, r1	; 0x0b
			Buffer->Count  = 0;
     204:	12 86       	std	Z+10, r1	; 0x0a
     206:	2f bf       	out	0x3f, r18	; 63
			static inline void SetGlobalInterruptMask(const uint_reg_t GlobalIntState)
			{
				GCC_MEMORY_BARRIER();

				#if (ARCH == ARCH_AVR8)
				SREG = GlobalIntState;
     208:	e9 e0       	ldi	r30, 0x09	; 9
		                                         const uint16_t Size) ATTR_NON_NULL_PTR_ARG(1) ATTR_NON_NULL_PTR_ARG(2);
		static inline void RingBuffer_InitBuffer(RingBuffer_t* Buffer,
		                                         uint8_t* const DataPtr,
		                                         const uint16_t Size)
		{
			GCC_FORCE_POINTER_ACCESS(Buffer);
     20a:	f2 e0       	ldi	r31, 0x02	; 2
     20c:	4f b7       	in	r20, 0x3f	; 63
			static inline uint_reg_t GetGlobalInterruptMask(void)
			{
				GCC_MEMORY_BARRIER();

				#if (ARCH == ARCH_AVR8)
				return SREG;
     20e:	f8 94       	cli
			static inline void GlobalInterruptDisable(void)
			{
				GCC_MEMORY_BARRIER();

				#if (ARCH == ARCH_AVR8)
				cli();
     210:	25 e1       	ldi	r18, 0x15	; 21

			uint_reg_t CurrentGlobalInt = GetGlobalInterruptMask();
			GlobalInterruptDisable();

			Buffer->In     = DataPtr;
     212:	32 e0       	ldi	r19, 0x02	; 2
     214:	31 83       	std	Z+1, r19	; 0x01
     216:	20 83       	st	Z, r18
     218:	33 83       	std	Z+3, r19	; 0x03
			Buffer->Out    = DataPtr;
     21a:	22 83       	std	Z+2, r18	; 0x02
     21c:	35 83       	std	Z+5, r19	; 0x05
			Buffer->Start  = &DataPtr[0];
     21e:	24 83       	std	Z+4, r18	; 0x04
     220:	25 e9       	ldi	r18, 0x95	; 149
			Buffer->End    = &DataPtr[Size];
     222:	32 e0       	ldi	r19, 0x02	; 2
     224:	37 83       	std	Z+7, r19	; 0x07
     226:	26 83       	std	Z+6, r18	; 0x06
     228:	91 87       	std	Z+9, r25	; 0x09
			Buffer->Size   = Size;
     22a:	80 87       	std	Z+8, r24	; 0x08
     22c:	13 86       	std	Z+11, r1	; 0x0b
			Buffer->Count  = 0;
     22e:	12 86       	std	Z+10, r1	; 0x0a
     230:	4f bf       	out	0x3f, r20	; 63
			static inline void SetGlobalInterruptMask(const uint_reg_t GlobalIntState)
			{
				GCC_MEMORY_BARRIER();

				#if (ARCH == ARCH_AVR8)
				SREG = GlobalIntState;
     232:	8d e4       	ldi	r24, 0x4D	; 77

	RingBuffer_InitBuffer(&USBtoUSART_Buffer, USBtoUSART_Buffer_Data, sizeof(USBtoUSART_Buffer_Data));
	RingBuffer_InitBuffer(&USARTtoUSB_Buffer, USARTtoUSB_Buffer_Data, sizeof(USARTtoUSB_Buffer_Data));
    
    CDC_Device_CreateStream(&VirtualSerial_CDC_Interface, &USBSerialStream);
     234:	91 e0       	ldi	r25, 0x01	; 1
     236:	65 e9       	ldi	r22, 0x95	; 149
     238:	72 e0       	ldi	r23, 0x02	; 2
     23a:	0e 94 3a 09 	call	0x1274	; 0x1274 <CDC_Device_CreateStream>
     23e:	80 e1       	ldi	r24, 0x10	; 16

	LEDs_SetAllLEDs(LEDMASK_USB_NOTREADY);
     240:	a1 df       	rcall	.-190    	; 0x184 <LEDs_SetAllLEDs>
     242:	78 94       	sei
     244:	8b e0       	ldi	r24, 0x0B	; 11
			static inline void GlobalInterruptEnable(void)
			{
				GCC_MEMORY_BARRIER();

				#if (ARCH == ARCH_AVR8)
				sei();
     246:	e8 2e       	mov	r14, r24
 */
int main(void)
{
    #define STRING_LENGTH 30
    char string[STRING_LENGTH];
    char *str = (char *)&string;
     248:	f1 2c       	mov	r15, r1
     24a:	ec 0e       	add	r14, r28
     24c:	fd 1e       	adc	r15, r29
     24e:	8e e1       	ldi	r24, 0x1E	; 30
     250:	f7 01       	movw	r30, r14
    CDC_Device_CreateStream(&VirtualSerial_CDC_Interface, &USBSerialStream);

	LEDs_SetAllLEDs(LEDMASK_USB_NOTREADY);
	GlobalInterruptEnable();
    
    memset(str, '\0', STRING_LENGTH);
     252:	11 92       	st	Z+, r1
     254:	8a 95       	dec	r24
     256:	e9 f7       	brne	.-6      	; 0x252 <main+0x8e>
     258:	8d e4       	ldi	r24, 0x4D	; 77
     25a:	91 e0       	ldi	r25, 0x01	; 1
    CDC_Device_SendString(&VirtualSerial_CDC_Interface, "Ready\r\n");
     25c:	60 e0       	ldi	r22, 0x00	; 0
     25e:	71 e0       	ldi	r23, 0x01	; 1
     260:	ec d6       	rcall	.+3544   	; 0x103a <CDC_Device_SendString>
     262:	10 e0       	ldi	r17, 0x00	; 0
     264:	45 e9       	ldi	r20, 0x95	; 149
     266:	a4 2e       	mov	r10, r20
int main(void)
{
    #define STRING_LENGTH 30
    char string[STRING_LENGTH];
    char *str = (char *)&string;
    char i = 0;
     268:	42 e0       	ldi	r20, 0x02	; 2
	{
        char compare[10];
        
        if(completeWord){
            completeWord = 0;
            fprintf(&USBSerialStream, "fprint: ");
     26a:	b4 2e       	mov	r11, r20
     26c:	53 ea       	ldi	r21, 0xA3	; 163
     26e:	85 2e       	mov	r8, r21
     270:	52 e0       	ldi	r21, 0x02	; 2
            fprintf(&USBSerialStream, intString);
     272:	95 2e       	mov	r9, r21
     274:	ee e1       	ldi	r30, 0x1E	; 30
     276:	de 2e       	mov	r13, r30
     278:	37 01       	movw	r6, r14
            CDC_Device_SendString(&VirtualSerial_CDC_Interface, "CDC: ");
            CDC_Device_SendString(&VirtualSerial_CDC_Interface, intString);
            memset(intString, '\0', 30);
     27a:	80 91 7a 01 	lds	r24, 0x017A
     27e:	88 23       	and	r24, r24

	for (;;)
	{
        char compare[10];
        
        if(completeWord){
     280:	09 f4       	brne	.+2      	; 0x284 <main+0xc0>
     282:	7d c0       	rjmp	.+250    	; 0x37e <main+0x1ba>
     284:	10 92 7a 01 	sts	0x017A, r1
     288:	88 e0       	ldi	r24, 0x08	; 8
            completeWord = 0;
     28a:	91 e0       	ldi	r25, 0x01	; 1
     28c:	65 e9       	ldi	r22, 0x95	; 149
            fprintf(&USBSerialStream, "fprint: ");
     28e:	72 e0       	ldi	r23, 0x02	; 2
     290:	0e 94 9d 09 	call	0x133a	; 0x133a <fputs>
     294:	00 d0       	rcall	.+0      	; 0x296 <main+0xd2>
     296:	00 d0       	rcall	.+0      	; 0x298 <main+0xd4>
     298:	ed b7       	in	r30, 0x3d	; 61
            fprintf(&USBSerialStream, intString);
     29a:	fe b7       	in	r31, 0x3e	; 62
     29c:	b2 82       	std	Z+2, r11	; 0x02
     29e:	a1 82       	std	Z+1, r10	; 0x01
     2a0:	94 82       	std	Z+4, r9	; 0x04
     2a2:	83 82       	std	Z+3, r8	; 0x03
     2a4:	0e 94 8d 09 	call	0x131a	; 0x131a <fprintf>
     2a8:	0f 90       	pop	r0
     2aa:	0f 90       	pop	r0
     2ac:	0f 90       	pop	r0
            CDC_Device_SendString(&VirtualSerial_CDC_Interface, "CDC: ");
     2ae:	0f 90       	pop	r0
     2b0:	8d e4       	ldi	r24, 0x4D	; 77
     2b2:	91 e0       	ldi	r25, 0x01	; 1
     2b4:	61 e1       	ldi	r22, 0x11	; 17
     2b6:	71 e0       	ldi	r23, 0x01	; 1
     2b8:	c0 d6       	rcall	.+3456   	; 0x103a <CDC_Device_SendString>
     2ba:	8d e4       	ldi	r24, 0x4D	; 77
     2bc:	91 e0       	ldi	r25, 0x01	; 1
     2be:	63 ea       	ldi	r22, 0xA3	; 163
     2c0:	72 e0       	ldi	r23, 0x02	; 2
            CDC_Device_SendString(&VirtualSerial_CDC_Interface, intString);
     2c2:	bb d6       	rcall	.+3446   	; 0x103a <CDC_Device_SendString>
     2c4:	f4 01       	movw	r30, r8
     2c6:	2d 2d       	mov	r18, r13
     2c8:	11 92       	st	Z+, r1
     2ca:	2a 95       	dec	r18
     2cc:	e9 f7       	brne	.-6      	; 0x2c8 <main+0x104>
            memset(intString, '\0', 30);
     2ce:	10 92 7c 01 	sts	0x017C, r1
     2d2:	10 92 7b 01 	sts	0x017B, r1
     2d6:	53 c0       	rjmp	.+166    	; 0x37e <main+0x1ba>
            intIndex = 0;
     2d8:	8d e4       	ldi	r24, 0x4D	; 77
     2da:	91 e0       	ldi	r25, 0x01	; 1
     2dc:	84 d7       	rcall	.+3848   	; 0x11e6 <CDC_Device_ReceiveByte>
     2de:	08 2f       	mov	r16, r24
     2e0:	8d 30       	cpi	r24, 0x0D	; 13
        
		/* Must throw away unused bytes from the host, or it will lock up while waiting for the device */
        while (CDC_Device_BytesReceived
               (&VirtualSerial_CDC_Interface))
        {
            char byte = CDC_Device_ReceiveByte(&VirtualSerial_CDC_Interface);
     2e2:	d9 f5       	brne	.+118    	; 0x35a <main+0x196>
     2e4:	ce 01       	movw	r24, r28
     2e6:	01 96       	adiw	r24, 0x01	; 1
     2e8:	b7 01       	movw	r22, r14
     2ea:	43 e0       	ldi	r20, 0x03	; 3
            
            if(byte == '\r'){
     2ec:	50 e0       	ldi	r21, 0x00	; 0
     2ee:	0e 94 7e 09 	call	0x12fc	; 0x12fc <strncpy>
                strncpy(compare, str, 3);
     2f2:	81 2f       	mov	r24, r17
     2f4:	90 e0       	ldi	r25, 0x00	; 0
     2f6:	f7 01       	movw	r30, r14
     2f8:	e8 0f       	add	r30, r24
     2fa:	f9 1f       	adc	r31, r25
     2fc:	00 83       	st	Z, r16
                
                string[i] = '\r';
     2fe:	ec e0       	ldi	r30, 0x0C	; 12
     300:	f0 e0       	ldi	r31, 0x00	; 0
     302:	ec 0f       	add	r30, r28
     304:	fd 1f       	adc	r31, r29
     306:	8e 0f       	add	r24, r30
     308:	9f 1f       	adc	r25, r31
                string[i+1] = '\n';
     30a:	2a e0       	ldi	r18, 0x0A	; 10
     30c:	fc 01       	movw	r30, r24
     30e:	20 83       	st	Z, r18
     310:	00 d0       	rcall	.+0      	; 0x312 <main+0x14e>
     312:	00 d0       	rcall	.+0      	; 0x314 <main+0x150>
     314:	ed b7       	in	r30, 0x3d	; 61
     316:	fe b7       	in	r31, 0x3e	; 62
     318:	b2 82       	std	Z+2, r11	; 0x02
     31a:	a1 82       	std	Z+1, r10	; 0x01
                fprintf(&USBSerialStream, string);
     31c:	f4 82       	std	Z+4, r15	; 0x04
     31e:	e3 82       	std	Z+3, r14	; 0x03
     320:	fc d7       	rcall	.+4088   	; 0x131a <fprintf>
     322:	f7 01       	movw	r30, r14
     324:	2d 2d       	mov	r18, r13
     326:	11 92       	st	Z+, r1
     328:	2a 95       	dec	r18
     32a:	e9 f7       	brne	.-6      	; 0x326 <main+0x162>
     32c:	0f 90       	pop	r0
     32e:	0f 90       	pop	r0
                i = 0;
                memset(str, '\0', STRING_LENGTH);
     330:	0f 90       	pop	r0
     332:	0f 90       	pop	r0
     334:	ce 01       	movw	r24, r28
     336:	01 96       	adiw	r24, 0x01	; 1
     338:	67 e1       	ldi	r22, 0x17	; 23
                if(strncmp(compare, "led", 3) == 0){
     33a:	71 e0       	ldi	r23, 0x01	; 1
     33c:	43 e0       	ldi	r20, 0x03	; 3
     33e:	50 e0       	ldi	r21, 0x00	; 0
     340:	cf d7       	rcall	.+3998   	; 0x12e0 <strncmp>
     342:	00 97       	sbiw	r24, 0x00	; 0
     344:	19 f5       	brne	.+70     	; 0x38c <main+0x1c8>
     346:	8b e1       	ldi	r24, 0x1B	; 27
     348:	91 e0       	ldi	r25, 0x01	; 1
     34a:	65 e9       	ldi	r22, 0x95	; 149
     34c:	72 e0       	ldi	r23, 0x02	; 2
     34e:	f5 d7       	rcall	.+4074   	; 0x133a <fputs>
     350:	8b b1       	in	r24, 0x0b	; 11
     352:	90 e1       	ldi	r25, 0x10	; 16
     354:	89 27       	eor	r24, r25
                    //CDC_Device_SendString(&VirtualSerial_CDC_Interface, "Set LED\r\n");
                    fprintf(&USBSerialStream, "Set LED\r\n");
     356:	8b b9       	out	0x0b, r24	; 11
     358:	19 c0       	rjmp	.+50     	; 0x38c <main+0x1c8>
     35a:	f3 01       	movw	r30, r6
     35c:	e1 0f       	add	r30, r17
     35e:	f1 1d       	adc	r31, r1
     360:	80 83       	st	Z, r24
                    PORTD ^= 1<<4;
     362:	1f 5f       	subi	r17, 0xFF	; 255
     364:	1a 31       	cpi	r17, 0x1A	; 26
     366:	58 f0       	brcs	.+22     	; 0x37e <main+0x1ba>
     368:	85 e2       	ldi	r24, 0x25	; 37
     36a:	91 e0       	ldi	r25, 0x01	; 1
                }
                //strcpy(str, "echo: ");
                break;
            }
            string[i] = byte;
     36c:	65 e9       	ldi	r22, 0x95	; 149
     36e:	72 e0       	ldi	r23, 0x02	; 2
     370:	e4 d7       	rcall	.+4040   	; 0x133a <fputs>
     372:	f3 01       	movw	r30, r6
            i++;
     374:	2d 2d       	mov	r18, r13
            if(i >= STRING_LENGTH - 4){
     376:	11 92       	st	Z+, r1
     378:	2a 95       	dec	r18
                fprintf(&USBSerialStream, "Overflow\r\n");
     37a:	e9 f7       	brne	.-6      	; 0x376 <main+0x1b2>
     37c:	10 e0       	ldi	r17, 0x00	; 0
     37e:	8d e4       	ldi	r24, 0x4D	; 77
     380:	91 e0       	ldi	r25, 0x01	; 1
     382:	fb d6       	rcall	.+3574   	; 0x117a <CDC_Device_BytesReceived>
     384:	00 97       	sbiw	r24, 0x00	; 0
                
                i = 0;
                memset(str, '\0', STRING_LENGTH);
     386:	09 f0       	breq	.+2      	; 0x38a <main+0x1c6>
     388:	a7 cf       	rjmp	.-178    	; 0x2d8 <main+0x114>
     38a:	01 c0       	rjmp	.+2      	; 0x38e <main+0x1ca>
     38c:	10 e0       	ldi	r17, 0x00	; 0
     38e:	8d e4       	ldi	r24, 0x4D	; 77
            string[i] = byte;
            i++;
            if(i >= STRING_LENGTH - 4){
                fprintf(&USBSerialStream, "Overflow\r\n");
                
                i = 0;
     390:	91 e0       	ldi	r25, 0x01	; 1
            intIndex = 0;
        }
        
		/* Must throw away unused bytes from the host, or it will lock up while waiting for the device */
        while (CDC_Device_BytesReceived
               (&VirtualSerial_CDC_Interface))
     392:	dc d6       	rcall	.+3512   	; 0x114c <CDC_Device_USBTask>
     394:	67 d5       	rcall	.+2766   	; 0xe64 <USB_USBTask>
     396:	71 cf       	rjmp	.-286    	; 0x27a <main+0xb6>

00000398 <EVENT_USB_Device_Connect>:
     398:	80 ea       	ldi	r24, 0xA0	; 160
            memset(intString, '\0', 30);
            intIndex = 0;
        }
        
		/* Must throw away unused bytes from the host, or it will lock up while waiting for the device */
        while (CDC_Device_BytesReceived
     39a:	f4 ce       	rjmp	.-536    	; 0x184 <LEDs_SetAllLEDs>

0000039c <EVENT_USB_Device_Disconnect>:
     39c:	80 e1       	ldi	r24, 0x10	; 16
     39e:	f2 ce       	rjmp	.-540    	; 0x184 <LEDs_SetAllLEDs>

000003a0 <EVENT_USB_Device_ConfigurationChanged>:
     3a0:	8d e4       	ldi	r24, 0x4D	; 77
                strncpy(compare, str, 3);
                
                string[i] = '\r';
                string[i+1] = '\n';
                fprintf(&USBSerialStream, string);
                i = 0;
     3a2:	91 e0       	ldi	r25, 0x01	; 1
        /*
		if (!(RingBuffer_IsEmpty(&USBtoUSART_Buffer)))
		  Serial_SendByte(RingBuffer_Remove(&USBtoUSART_Buffer));
        */

		CDC_Device_USBTask(&VirtualSerial_CDC_Interface);
     3a4:	26 d6       	rcall	.+3148   	; 0xff2 <CDC_Device_ConfigureEndpoints>
     3a6:	88 23       	and	r24, r24
     3a8:	11 f0       	breq	.+4      	; 0x3ae <EVENT_USB_Device_ConfigurationChanged+0xe>
     3aa:	80 e6       	ldi	r24, 0x60	; 96
		USB_USBTask();
     3ac:	01 c0       	rjmp	.+2      	; 0x3b0 <EVENT_USB_Device_ConfigurationChanged+0x10>
     3ae:	80 e9       	ldi	r24, 0x90	; 144
	}
     3b0:	e9 ce       	rjmp	.-558    	; 0x184 <LEDs_SetAllLEDs>

000003b2 <EVENT_USB_Device_ControlRequest>:
{
	bool ConfigSuccess = true;

	ConfigSuccess &= CDC_Device_ConfigureEndpoints(&VirtualSerial_CDC_Interface);

	LEDs_SetAllLEDs(ConfigSuccess ? LEDMASK_USB_READY : LEDMASK_USB_ERROR);
     3b2:	8d e4       	ldi	r24, 0x4D	; 77
     3b4:	91 e0       	ldi	r25, 0x01	; 1
}
     3b6:	71 c5       	rjmp	.+2786   	; 0xe9a <CDC_Device_ProcessControlRequest>

000003b8 <__vector_25>:

/** Event handler for the library USB Control Request reception event. */
void EVENT_USB_Device_ControlRequest(void)
{
	CDC_Device_ProcessControlRequest(&VirtualSerial_CDC_Interface);
     3b8:	1f 92       	push	r1
}
     3ba:	0f 92       	push	r0
    }
}
 */

ISR(USART1_RX_vect, ISR_BLOCK)
{
     3bc:	0f b6       	in	r0, 0x3f	; 63
     3be:	0f 92       	push	r0
     3c0:	11 24       	eor	r1, r1
     3c2:	2f 93       	push	r18
     3c4:	3f 93       	push	r19
     3c6:	4f 93       	push	r20
     3c8:	5f 93       	push	r21
     3ca:	6f 93       	push	r22
     3cc:	7f 93       	push	r23
     3ce:	8f 93       	push	r24
     3d0:	9f 93       	push	r25
     3d2:	af 93       	push	r26
     3d4:	bf 93       	push	r27
     3d6:	cf 93       	push	r28
     3d8:	ef 93       	push	r30
     3da:	ff 93       	push	r31
	char ReceivedByte = UDR1;
     3dc:	c0 91 ce 00 	lds	r28, 0x00CE
    fprintf(&USBSerialStream, "interrupt\r\n");
     3e0:	80 e3       	ldi	r24, 0x30	; 48
     3e2:	91 e0       	ldi	r25, 0x01	; 1
     3e4:	65 e9       	ldi	r22, 0x95	; 149
     3e6:	72 e0       	ldi	r23, 0x02	; 2
     3e8:	a8 d7       	rcall	.+3920   	; 0x133a <fputs>
     3ea:	8e b3       	in	r24, 0x1e	; 30
    
	if (USB_DeviceState == DEVICE_STATE_Configured){
     3ec:	84 30       	cpi	r24, 0x04	; 4
     3ee:	09 f5       	brne	.+66     	; 0x432 <__vector_25+0x7a>
     3f0:	80 91 7b 01 	lds	r24, 0x017B
        if(intIndex == 30){
     3f4:	90 91 7c 01 	lds	r25, 0x017C
     3f8:	8e 31       	cpi	r24, 0x1E	; 30
     3fa:	91 05       	cpc	r25, r1
     3fc:	89 f4       	brne	.+34     	; 0x420 <__vector_25+0x68>
     3fe:	8c e3       	ldi	r24, 0x3C	; 60
            fprintf(&USBSerialStream, "Overflow Error\r\n");
     400:	91 e0       	ldi	r25, 0x01	; 1
     402:	65 e9       	ldi	r22, 0x95	; 149
     404:	72 e0       	ldi	r23, 0x02	; 2
     406:	99 d7       	rcall	.+3890   	; 0x133a <fputs>
     408:	10 92 7c 01 	sts	0x017C, r1
            intIndex = 0;
     40c:	10 92 7b 01 	sts	0x017B, r1
     410:	8e e1       	ldi	r24, 0x1E	; 30
     412:	e3 ea       	ldi	r30, 0xA3	; 163
            memset(intString, '\0', 30);
     414:	f2 e0       	ldi	r31, 0x02	; 2
     416:	df 01       	movw	r26, r30
     418:	1d 92       	st	X+, r1
     41a:	8a 95       	dec	r24
     41c:	e9 f7       	brne	.-6      	; 0x418 <__vector_25+0x60>
     41e:	10 c0       	rjmp	.+32     	; 0x440 <__vector_25+0x88>
     420:	fc 01       	movw	r30, r24
            return;
     422:	ed 55       	subi	r30, 0x5D	; 93
        }
        intString[intIndex] = ReceivedByte;
     424:	fd 4f       	sbci	r31, 0xFD	; 253
     426:	c0 83       	st	Z, r28
     428:	01 96       	adiw	r24, 0x01	; 1
     42a:	90 93 7c 01 	sts	0x017C, r25
        intIndex++;
     42e:	80 93 7b 01 	sts	0x017B, r24
     432:	cd 30       	cpi	r28, 0x0D	; 13
     434:	11 f0       	breq	.+4      	; 0x43a <__vector_25+0x82>
    }
    
    if(ReceivedByte == '\r' || ReceivedByte == '\n'){
     436:	ca 30       	cpi	r28, 0x0A	; 10
     438:	19 f4       	brne	.+6      	; 0x440 <__vector_25+0x88>
     43a:	81 e0       	ldi	r24, 0x01	; 1
     43c:	80 93 7a 01 	sts	0x017A, r24
        completeWord = 1;
     440:	ff 91       	pop	r31
     442:	ef 91       	pop	r30
    }
}
     444:	cf 91       	pop	r28
     446:	bf 91       	pop	r27
     448:	af 91       	pop	r26
     44a:	9f 91       	pop	r25
     44c:	8f 91       	pop	r24
     44e:	7f 91       	pop	r23
     450:	6f 91       	pop	r22
     452:	5f 91       	pop	r21
     454:	4f 91       	pop	r20
     456:	3f 91       	pop	r19
     458:	2f 91       	pop	r18
     45a:	0f 90       	pop	r0
     45c:	0f be       	out	0x3f, r0	; 63
     45e:	0f 90       	pop	r0
     460:	1f 90       	pop	r1
     462:	18 95       	reti

00000464 <EVENT_CDC_Device_LineEncodingChanged>:
     464:	cf 93       	push	r28
     466:	fc 01       	movw	r30, r24
 */
void EVENT_CDC_Device_LineEncodingChanged(USB_ClassInfo_CDC_Device_t* const CDCInterfaceInfo)
{
	uint8_t ConfigMask = 0;

	switch (CDCInterfaceInfo->State.LineEncoding.ParityType)
     468:	a1 8d       	ldd	r26, Z+25	; 0x19
     46a:	a1 50       	subi	r26, 0x01	; 1
     46c:	a2 30       	cpi	r26, 0x02	; 2
     46e:	28 f4       	brcc	.+10     	; 0x47a <EVENT_CDC_Device_LineEncodingChanged+0x16>
     470:	b0 e0       	ldi	r27, 0x00	; 0
     472:	a8 59       	subi	r26, 0x98	; 152
     474:	be 4f       	sbci	r27, 0xFE	; 254
     476:	cc 91       	ld	r28, X
     478:	01 c0       	rjmp	.+2      	; 0x47c <EVENT_CDC_Device_LineEncodingChanged+0x18>
     47a:	c0 e0       	ldi	r28, 0x00	; 0
		case CDC_PARITY_Even:
			ConfigMask = (1 << UPM11);
			break;
	}

	if (CDCInterfaceInfo->State.LineEncoding.CharFormat == CDC_LINEENCODING_TwoStopBits)
     47c:	80 8d       	ldd	r24, Z+24	; 0x18
     47e:	82 30       	cpi	r24, 0x02	; 2
     480:	09 f4       	brne	.+2      	; 0x484 <EVENT_CDC_Device_LineEncodingChanged+0x20>
	  ConfigMask |= (1 << USBS1);
     482:	c8 60       	ori	r28, 0x08	; 8

	switch (CDCInterfaceInfo->State.LineEncoding.DataBits)
     484:	82 8d       	ldd	r24, Z+26	; 0x1a
     486:	87 30       	cpi	r24, 0x07	; 7
     488:	31 f0       	breq	.+12     	; 0x496 <EVENT_CDC_Device_LineEncodingChanged+0x32>
     48a:	88 30       	cpi	r24, 0x08	; 8
     48c:	31 f0       	breq	.+12     	; 0x49a <EVENT_CDC_Device_LineEncodingChanged+0x36>
     48e:	86 30       	cpi	r24, 0x06	; 6
     490:	29 f4       	brne	.+10     	; 0x49c <EVENT_CDC_Device_LineEncodingChanged+0x38>
	{
		case 6:
			ConfigMask |= (1 << UCSZ10);
     492:	c2 60       	ori	r28, 0x02	; 2
			break;
     494:	03 c0       	rjmp	.+6      	; 0x49c <EVENT_CDC_Device_LineEncodingChanged+0x38>
		case 7:
			ConfigMask |= (1 << UCSZ11);
     496:	c4 60       	ori	r28, 0x04	; 4
			break;
     498:	01 c0       	rjmp	.+2      	; 0x49c <EVENT_CDC_Device_LineEncodingChanged+0x38>
		case 8:
			ConfigMask |= ((1 << UCSZ11) | (1 << UCSZ10));
     49a:	c6 60       	ori	r28, 0x06	; 6
			break;
	}

	/* Must turn off USART before reconfiguring it, otherwise incorrect operation may occur */
	UCSR1B = 0;
     49c:	10 92 c9 00 	sts	0x00C9, r1
	UCSR1A = 0;
     4a0:	10 92 c8 00 	sts	0x00C8, r1
	UCSR1C = 0;
     4a4:	10 92 ca 00 	sts	0x00CA, r1

	/* Set the new baud rate before configuring the USART */
	UBRR1  = SERIAL_2X_UBBRVAL(CDCInterfaceInfo->State.LineEncoding.BaudRateBPS);
     4a8:	24 89       	ldd	r18, Z+20	; 0x14
     4aa:	35 89       	ldd	r19, Z+21	; 0x15
     4ac:	46 89       	ldd	r20, Z+22	; 0x16
     4ae:	57 89       	ldd	r21, Z+23	; 0x17
     4b0:	da 01       	movw	r26, r20
     4b2:	c9 01       	movw	r24, r18
     4b4:	b6 95       	lsr	r27
     4b6:	a7 95       	ror	r26
     4b8:	97 95       	ror	r25
     4ba:	87 95       	ror	r24
     4bc:	80 58       	subi	r24, 0x80	; 128
     4be:	9b 47       	sbci	r25, 0x7B	; 123
     4c0:	a1 4e       	sbci	r26, 0xE1	; 225
     4c2:	bf 4f       	sbci	r27, 0xFF	; 255
     4c4:	bc 01       	movw	r22, r24
     4c6:	cd 01       	movw	r24, r26
     4c8:	e9 d6       	rcall	.+3538   	; 0x129c <__udivmodsi4>
     4ca:	21 50       	subi	r18, 0x01	; 1
     4cc:	30 40       	sbci	r19, 0x00	; 0
     4ce:	30 93 cd 00 	sts	0x00CD, r19
     4d2:	20 93 cc 00 	sts	0x00CC, r18
     4d6:	c0 93 ca 00 	sts	0x00CA, r28

	/* Reconfigure the USART in double speed mode for a wider baud rate range at the expense of accuracy */
	UCSR1C = ConfigMask;
     4da:	82 e0       	ldi	r24, 0x02	; 2
	UCSR1A = (1 << U2X1);
     4dc:	80 93 c8 00 	sts	0x00C8, r24
     4e0:	88 e9       	ldi	r24, 0x98	; 152
	UCSR1B = ((1 << RXCIE1) | (1 << TXEN1) | (1 << RXEN1));
     4e2:	80 93 c9 00 	sts	0x00C9, r24
     4e6:	cf 91       	pop	r28
}
     4e8:	08 95       	ret

000004ea <CALLBACK_USB_GetDescriptor>:
	const uint8_t  DescriptorNumber = (wValue & 0xFF);

	const void* Address = NULL;
	uint16_t    Size    = NO_DESCRIPTOR;

	switch (DescriptorType)
     4ea:	92 30       	cpi	r25, 0x02	; 2
     4ec:	29 f0       	breq	.+10     	; 0x4f8 <CALLBACK_USB_GetDescriptor+0xe>
     4ee:	93 30       	cpi	r25, 0x03	; 3
     4f0:	41 f0       	breq	.+16     	; 0x502 <CALLBACK_USB_GetDescriptor+0x18>
     4f2:	91 30       	cpi	r25, 0x01	; 1
     4f4:	e9 f4       	brne	.+58     	; 0x530 <CALLBACK_USB_GetDescriptor+0x46>
     4f6:	17 c0       	rjmp	.+46     	; 0x526 <CALLBACK_USB_GetDescriptor+0x3c>
			Address = &DeviceDescriptor;
			Size    = sizeof(USB_Descriptor_Device_t);
			break;
		case DTYPE_Configuration:
			Address = &ConfigurationDescriptor;
			Size    = sizeof(USB_Descriptor_Configuration_t);
     4f8:	8e e3       	ldi	r24, 0x3E	; 62
     4fa:	90 e0       	ldi	r25, 0x00	; 0
		case DTYPE_Device:
			Address = &DeviceDescriptor;
			Size    = sizeof(USB_Descriptor_Device_t);
			break;
		case DTYPE_Configuration:
			Address = &ConfigurationDescriptor;
     4fc:	ea ef       	ldi	r30, 0xFA	; 250
     4fe:	f0 e0       	ldi	r31, 0x00	; 0
			Size    = sizeof(USB_Descriptor_Configuration_t);
			break;
     500:	1b c0       	rjmp	.+54     	; 0x538 <CALLBACK_USB_GetDescriptor+0x4e>
		case DTYPE_String:
			switch (DescriptorNumber)
     502:	81 30       	cpi	r24, 0x01	; 1
     504:	41 f0       	breq	.+16     	; 0x516 <CALLBACK_USB_GetDescriptor+0x2c>
     506:	81 30       	cpi	r24, 0x01	; 1
     508:	18 f0       	brcs	.+6      	; 0x510 <CALLBACK_USB_GetDescriptor+0x26>
     50a:	82 30       	cpi	r24, 0x02	; 2
     50c:	89 f4       	brne	.+34     	; 0x530 <CALLBACK_USB_GetDescriptor+0x46>
     50e:	06 c0       	rjmp	.+12     	; 0x51c <CALLBACK_USB_GetDescriptor+0x32>
			{
				case 0x00:
					Address = &LanguageString;
					Size    = pgm_read_byte(&LanguageString.Header.Size);
     510:	e6 ef       	ldi	r30, 0xF6	; 246
     512:	f0 e0       	ldi	r31, 0x00	; 0
     514:	05 c0       	rjmp	.+10     	; 0x520 <CALLBACK_USB_GetDescriptor+0x36>
					break;
				case 0x01:
					Address = &ManufacturerString;
					Size    = pgm_read_byte(&ManufacturerString.Header.Size);
     516:	ec ed       	ldi	r30, 0xDC	; 220
     518:	f0 e0       	ldi	r31, 0x00	; 0
     51a:	02 c0       	rjmp	.+4      	; 0x520 <CALLBACK_USB_GetDescriptor+0x36>
					break;
				case 0x02:
					Address = &ProductString;
					Size    = pgm_read_byte(&ProductString.Header.Size);
     51c:	ec ea       	ldi	r30, 0xAC	; 172
     51e:	f0 e0       	ldi	r31, 0x00	; 0
     520:	84 91       	lpm	r24, Z
     522:	90 e0       	ldi	r25, 0x00	; 0
					break;
     524:	09 c0       	rjmp	.+18     	; 0x538 <CALLBACK_USB_GetDescriptor+0x4e>

	switch (DescriptorType)
	{
		case DTYPE_Device:
			Address = &DeviceDescriptor;
			Size    = sizeof(USB_Descriptor_Device_t);
     526:	82 e1       	ldi	r24, 0x12	; 18
     528:	90 e0       	ldi	r25, 0x00	; 0
	uint16_t    Size    = NO_DESCRIPTOR;

	switch (DescriptorType)
	{
		case DTYPE_Device:
			Address = &DeviceDescriptor;
     52a:	e8 e3       	ldi	r30, 0x38	; 56
     52c:	f1 e0       	ldi	r31, 0x01	; 1
     52e:	04 c0       	rjmp	.+8      	; 0x538 <CALLBACK_USB_GetDescriptor+0x4e>
{
	const uint8_t  DescriptorType   = (wValue >> 8);
	const uint8_t  DescriptorNumber = (wValue & 0xFF);

	const void* Address = NULL;
	uint16_t    Size    = NO_DESCRIPTOR;
     530:	80 e0       	ldi	r24, 0x00	; 0
     532:	90 e0       	ldi	r25, 0x00	; 0
                                    const void** const DescriptorAddress)
{
	const uint8_t  DescriptorType   = (wValue >> 8);
	const uint8_t  DescriptorNumber = (wValue & 0xFF);

	const void* Address = NULL;
     534:	e0 e0       	ldi	r30, 0x00	; 0
     536:	f0 e0       	ldi	r31, 0x00	; 0
			}

			break;
	}

	*DescriptorAddress = Address;
     538:	da 01       	movw	r26, r20
     53a:	11 96       	adiw	r26, 0x01	; 1
     53c:	fc 93       	st	X, r31
     53e:	ee 93       	st	-X, r30
	return Size;
}
     540:	08 95       	ret

00000542 <Endpoint_Write_Stream_LE>:
#if defined(TEMPLATE_FUNC_NAME)

uint8_t TEMPLATE_FUNC_NAME (TEMPLATE_BUFFER_TYPE const Buffer,
                            uint16_t Length,
                            uint16_t* const BytesProcessed)
{
     542:	af 92       	push	r10
     544:	bf 92       	push	r11
     546:	cf 92       	push	r12
     548:	df 92       	push	r13
     54a:	ef 92       	push	r14
     54c:	ff 92       	push	r15
     54e:	1f 93       	push	r17
     550:	cf 93       	push	r28
     552:	df 93       	push	r29
     554:	ec 01       	movw	r28, r24
     556:	7b 01       	movw	r14, r22
     558:	6a 01       	movw	r12, r20
	uint8_t* DataStream      = ((uint8_t*)Buffer + TEMPLATE_BUFFER_OFFSET(Length));
	uint16_t BytesInTransfer = 0;
	uint8_t  ErrorCode;

	if ((ErrorCode = Endpoint_WaitUntilReady()))
     55a:	92 d1       	rcall	.+804    	; 0x880 <Endpoint_WaitUntilReady>
     55c:	18 2f       	mov	r17, r24
     55e:	88 23       	and	r24, r24
     560:	a1 f5       	brne	.+104    	; 0x5ca <Endpoint_Write_Stream_LE+0x88>
     562:	c1 14       	cp	r12, r1
	  return ErrorCode;

	if (BytesProcessed != NULL)
     564:	d1 04       	cpc	r13, r1
     566:	39 f0       	breq	.+14     	; 0x576 <Endpoint_Write_Stream_LE+0x34>
     568:	f6 01       	movw	r30, r12
	{
		Length -= *BytesProcessed;
     56a:	20 81       	ld	r18, Z
     56c:	31 81       	ldd	r19, Z+1	; 0x01
     56e:	e2 1a       	sub	r14, r18
     570:	f3 0a       	sbc	r15, r19
     572:	c2 0f       	add	r28, r18
		TEMPLATE_BUFFER_MOVE(DataStream, *BytesProcessed);
     574:	d3 1f       	adc	r29, r19
     576:	aa 24       	eor	r10, r10

uint8_t TEMPLATE_FUNC_NAME (TEMPLATE_BUFFER_TYPE const Buffer,
                            uint16_t Length,
                            uint16_t* const BytesProcessed)
{
	uint8_t* DataStream      = ((uint8_t*)Buffer + TEMPLATE_BUFFER_OFFSET(Length));
     578:	bb 24       	eor	r11, r11
     57a:	22 c0       	rjmp	.+68     	; 0x5c0 <Endpoint_Write_Stream_LE+0x7e>
     57c:	80 91 e8 00 	lds	r24, 0x00E8
			 *          on its direction.
			 */
			static inline bool Endpoint_IsReadWriteAllowed(void) ATTR_WARN_UNUSED_RESULT ATTR_ALWAYS_INLINE;
			static inline bool Endpoint_IsReadWriteAllowed(void)
			{
				return ((UEINTX & (1 << RWAL)) ? true : false);
     580:	85 fd       	sbrc	r24, 5
		TEMPLATE_BUFFER_MOVE(DataStream, *BytesProcessed);
	}

	while (Length)
	{
		if (!(Endpoint_IsReadWriteAllowed()))
     582:	15 c0       	rjmp	.+42     	; 0x5ae <Endpoint_Write_Stream_LE+0x6c>
     584:	80 91 e8 00 	lds	r24, 0x00E8
			 */
			static inline void Endpoint_ClearIN(void) ATTR_ALWAYS_INLINE;
			static inline void Endpoint_ClearIN(void)
			{
				#if !defined(CONTROL_ONLY_DEVICE)
					UEINTX &= ~((1 << TXINI) | (1 << FIFOCON));
     588:	8e 77       	andi	r24, 0x7E	; 126
     58a:	80 93 e8 00 	sts	0x00E8, r24
     58e:	c1 14       	cp	r12, r1

			#if !defined(INTERRUPT_CONTROL_ENDPOINT)
			USB_USBTask();
			#endif

			if (BytesProcessed != NULL)
     590:	d1 04       	cpc	r13, r1
     592:	49 f0       	breq	.+18     	; 0x5a6 <Endpoint_Write_Stream_LE+0x64>
     594:	f6 01       	movw	r30, r12
			{
				*BytesProcessed += BytesInTransfer;
     596:	80 81       	ld	r24, Z
     598:	91 81       	ldd	r25, Z+1	; 0x01
     59a:	8a 0d       	add	r24, r10
     59c:	9b 1d       	adc	r25, r11
     59e:	91 83       	std	Z+1, r25	; 0x01
     5a0:	80 83       	st	Z, r24
     5a2:	15 e0       	ldi	r17, 0x05	; 5
				return ENDPOINT_RWSTREAM_IncompleteTransfer;
     5a4:	12 c0       	rjmp	.+36     	; 0x5ca <Endpoint_Write_Stream_LE+0x88>
     5a6:	6c d1       	rcall	.+728    	; 0x880 <Endpoint_WaitUntilReady>
			}

			if ((ErrorCode = Endpoint_WaitUntilReady()))
     5a8:	88 23       	and	r24, r24
     5aa:	51 f0       	breq	.+20     	; 0x5c0 <Endpoint_Write_Stream_LE+0x7e>
     5ac:	0d c0       	rjmp	.+26     	; 0x5c8 <Endpoint_Write_Stream_LE+0x86>
     5ae:	89 91       	ld	r24, Y+
     5b0:	80 93 f1 00 	sts	0x00F1, r24
			 *  \param[in] Data  Data to write into the the currently selected endpoint's FIFO buffer.
			 */
			static inline void Endpoint_Write_8(const uint8_t Data) ATTR_ALWAYS_INLINE;
			static inline void Endpoint_Write_8(const uint8_t Data)
			{
				UEDATX = Data;
     5b4:	08 94       	sec
     5b6:	e1 08       	sbc	r14, r1
		}
		else
		{
			TEMPLATE_TRANSFER_BYTE(DataStream);
			TEMPLATE_BUFFER_MOVE(DataStream, 1);
			Length--;
     5b8:	f1 08       	sbc	r15, r1
     5ba:	08 94       	sec
     5bc:	a1 1c       	adc	r10, r1
			BytesInTransfer++;
     5be:	b1 1c       	adc	r11, r1
     5c0:	e1 14       	cp	r14, r1
     5c2:	f1 04       	cpc	r15, r1
	{
		Length -= *BytesProcessed;
		TEMPLATE_BUFFER_MOVE(DataStream, *BytesProcessed);
	}

	while (Length)
     5c4:	d9 f6       	brne	.-74     	; 0x57c <Endpoint_Write_Stream_LE+0x3a>
     5c6:	01 c0       	rjmp	.+2      	; 0x5ca <Endpoint_Write_Stream_LE+0x88>
     5c8:	18 2f       	mov	r17, r24
     5ca:	81 2f       	mov	r24, r17
			{
				*BytesProcessed += BytesInTransfer;
				return ENDPOINT_RWSTREAM_IncompleteTransfer;
			}

			if ((ErrorCode = Endpoint_WaitUntilReady()))
     5cc:	df 91       	pop	r29
			BytesInTransfer++;
		}
	}

	return ENDPOINT_RWSTREAM_NoError;
}
     5ce:	cf 91       	pop	r28
     5d0:	1f 91       	pop	r17
     5d2:	ff 90       	pop	r15
     5d4:	ef 90       	pop	r14
     5d6:	df 90       	pop	r13
     5d8:	cf 90       	pop	r12
     5da:	bf 90       	pop	r11
     5dc:	af 90       	pop	r10
     5de:	08 95       	ret

000005e0 <Endpoint_Write_Control_Stream_LE>:
     5e0:	40 91 cb 02 	lds	r20, 0x02CB
                            uint16_t Length)
{
	uint8_t* DataStream     = ((uint8_t*)Buffer + TEMPLATE_BUFFER_OFFSET(Length));
	bool     LastPacketFull = false;

	if (Length > USB_ControlRequest.wLength)
     5e4:	50 91 cc 02 	lds	r21, 0x02CC
     5e8:	46 17       	cp	r20, r22
     5ea:	57 07       	cpc	r21, r23
     5ec:	20 f4       	brcc	.+8      	; 0x5f6 <Endpoint_Write_Control_Stream_LE+0x16>
     5ee:	ba 01       	movw	r22, r20
     5f0:	fc 01       	movw	r30, r24
     5f2:	40 e0       	ldi	r20, 0x00	; 0
     5f4:	3b c0       	rjmp	.+118    	; 0x66c <Endpoint_Write_Control_Stream_LE+0x8c>
	  Length = USB_ControlRequest.wLength;
	else if (!(Length))
     5f6:	61 15       	cp	r22, r1
     5f8:	71 05       	cpc	r23, r1
     5fa:	d1 f7       	brne	.-12     	; 0x5f0 <Endpoint_Write_Control_Stream_LE+0x10>
			 */
			static inline void Endpoint_ClearIN(void) ATTR_ALWAYS_INLINE;
			static inline void Endpoint_ClearIN(void)
			{
				#if !defined(CONTROL_ONLY_DEVICE)
					UEINTX &= ~((1 << TXINI) | (1 << FIFOCON));
     5fc:	40 91 e8 00 	lds	r20, 0x00E8
     600:	4e 77       	andi	r20, 0x7E	; 126
     602:	40 93 e8 00 	sts	0x00E8, r20
     606:	f4 cf       	rjmp	.-24     	; 0x5f0 <Endpoint_Write_Control_Stream_LE+0x10>
	  Endpoint_ClearIN();

	while (Length || LastPacketFull)
	{
		uint8_t USB_DeviceState_LCL = USB_DeviceState;
     608:	8e b3       	in	r24, 0x1e	; 30

		if (USB_DeviceState_LCL == DEVICE_STATE_Unattached)
     60a:	88 23       	and	r24, r24
     60c:	09 f4       	brne	.+2      	; 0x610 <Endpoint_Write_Control_Stream_LE+0x30>
     60e:	43 c0       	rjmp	.+134    	; 0x696 <Endpoint_Write_Control_Stream_LE+0xb6>
		  return ENDPOINT_RWCSTREAM_DeviceDisconnected;
		else if (USB_DeviceState_LCL == DEVICE_STATE_Suspended)
     610:	85 30       	cpi	r24, 0x05	; 5
     612:	e9 f1       	breq	.+122    	; 0x68e <Endpoint_Write_Control_Stream_LE+0xae>
			 *  \return Boolean \c true if the selected endpoint has received a SETUP packet, \c false otherwise.
			 */
			static inline bool Endpoint_IsSETUPReceived(void) ATTR_WARN_UNUSED_RESULT ATTR_ALWAYS_INLINE;
			static inline bool Endpoint_IsSETUPReceived(void)
			{
				return ((UEINTX & (1 << RXSTPI)) ? true : false);
     614:	80 91 e8 00 	lds	r24, 0x00E8
		  return ENDPOINT_RWCSTREAM_BusSuspended;
		else if (Endpoint_IsSETUPReceived())
     618:	83 fd       	sbrc	r24, 3
     61a:	3b c0       	rjmp	.+118    	; 0x692 <Endpoint_Write_Control_Stream_LE+0xb2>
			 *  \return Boolean \c true if current endpoint is has received an OUT packet, \c false otherwise.
			 */
			static inline bool Endpoint_IsOUTReceived(void) ATTR_WARN_UNUSED_RESULT ATTR_ALWAYS_INLINE;
			static inline bool Endpoint_IsOUTReceived(void)
			{
				return ((UEINTX & (1 << RXOUTI)) ? true : false);
     61c:	80 91 e8 00 	lds	r24, 0x00E8
		  return ENDPOINT_RWCSTREAM_HostAborted;
		else if (Endpoint_IsOUTReceived())
     620:	82 fd       	sbrc	r24, 2
     622:	2f c0       	rjmp	.+94     	; 0x682 <Endpoint_Write_Control_Stream_LE+0xa2>
			 *  \return Boolean \c true if the current endpoint is ready for an IN packet, \c false otherwise.
			 */
			static inline bool Endpoint_IsINReady(void) ATTR_WARN_UNUSED_RESULT ATTR_ALWAYS_INLINE;
			static inline bool Endpoint_IsINReady(void)
			{
				return ((UEINTX & (1 << TXINI)) ? true : false);
     624:	80 91 e8 00 	lds	r24, 0x00E8
		  break;

		if (Endpoint_IsINReady())
     628:	80 ff       	sbrs	r24, 0
     62a:	20 c0       	rjmp	.+64     	; 0x66c <Endpoint_Write_Control_Stream_LE+0x8c>
			static inline uint16_t Endpoint_BytesInEndpoint(void)
			{
				#if (defined(USB_SERIES_6_AVR) || defined(USB_SERIES_7_AVR))
					return UEBCX;
				#elif defined(USB_SERIES_4_AVR)
					return (((uint16_t)UEBCHX << 8) | UEBCLX);
     62c:	90 91 f3 00 	lds	r25, 0x00F3
     630:	80 91 f2 00 	lds	r24, 0x00F2
     634:	39 2f       	mov	r19, r25
     636:	20 e0       	ldi	r18, 0x00	; 0
     638:	90 e0       	ldi	r25, 0x00	; 0
     63a:	82 2b       	or	r24, r18
     63c:	93 2b       	or	r25, r19
		{
			uint16_t BytesInEndpoint = Endpoint_BytesInEndpoint();

			while (Length && (BytesInEndpoint < USB_Device_ControlEndpointSize))
     63e:	06 c0       	rjmp	.+12     	; 0x64c <Endpoint_Write_Control_Stream_LE+0x6c>
			{
				TEMPLATE_TRANSFER_BYTE(DataStream);
     640:	41 91       	ld	r20, Z+
			 *  \param[in] Data  Data to write into the the currently selected endpoint's FIFO buffer.
			 */
			static inline void Endpoint_Write_8(const uint8_t Data) ATTR_ALWAYS_INLINE;
			static inline void Endpoint_Write_8(const uint8_t Data)
			{
				UEDATX = Data;
     642:	40 93 f1 00 	sts	0x00F1, r20
				TEMPLATE_BUFFER_MOVE(DataStream, 1);
				Length--;
     646:	61 50       	subi	r22, 0x01	; 1
     648:	70 40       	sbci	r23, 0x00	; 0
				BytesInEndpoint++;
     64a:	01 96       	adiw	r24, 0x01	; 1

		if (Endpoint_IsINReady())
		{
			uint16_t BytesInEndpoint = Endpoint_BytesInEndpoint();

			while (Length && (BytesInEndpoint < USB_Device_ControlEndpointSize))
     64c:	61 15       	cp	r22, r1
     64e:	71 05       	cpc	r23, r1
     650:	19 f0       	breq	.+6      	; 0x658 <Endpoint_Write_Control_Stream_LE+0x78>
     652:	88 30       	cpi	r24, 0x08	; 8
     654:	91 05       	cpc	r25, r1
     656:	a0 f3       	brcs	.-24     	; 0x640 <Endpoint_Write_Control_Stream_LE+0x60>
				TEMPLATE_BUFFER_MOVE(DataStream, 1);
				Length--;
				BytesInEndpoint++;
			}

			LastPacketFull = (BytesInEndpoint == USB_Device_ControlEndpointSize);
     658:	41 e0       	ldi	r20, 0x01	; 1
     65a:	88 30       	cpi	r24, 0x08	; 8
     65c:	91 05       	cpc	r25, r1
     65e:	09 f0       	breq	.+2      	; 0x662 <Endpoint_Write_Control_Stream_LE+0x82>
     660:	40 e0       	ldi	r20, 0x00	; 0
			 */
			static inline void Endpoint_ClearIN(void) ATTR_ALWAYS_INLINE;
			static inline void Endpoint_ClearIN(void)
			{
				#if !defined(CONTROL_ONLY_DEVICE)
					UEINTX &= ~((1 << TXINI) | (1 << FIFOCON));
     662:	80 91 e8 00 	lds	r24, 0x00E8
     666:	8e 77       	andi	r24, 0x7E	; 126
     668:	80 93 e8 00 	sts	0x00E8, r24
	if (Length > USB_ControlRequest.wLength)
	  Length = USB_ControlRequest.wLength;
	else if (!(Length))
	  Endpoint_ClearIN();

	while (Length || LastPacketFull)
     66c:	61 15       	cp	r22, r1
     66e:	71 05       	cpc	r23, r1
     670:	59 f6       	brne	.-106    	; 0x608 <Endpoint_Write_Control_Stream_LE+0x28>
     672:	44 23       	and	r20, r20
     674:	49 f6       	brne	.-110    	; 0x608 <Endpoint_Write_Control_Stream_LE+0x28>
     676:	05 c0       	rjmp	.+10     	; 0x682 <Endpoint_Write_Control_Stream_LE+0xa2>
		}
	}

	while (!(Endpoint_IsOUTReceived()))
	{
		uint8_t USB_DeviceState_LCL = USB_DeviceState;
     678:	8e b3       	in	r24, 0x1e	; 30

		if (USB_DeviceState_LCL == DEVICE_STATE_Unattached)
     67a:	88 23       	and	r24, r24
     67c:	61 f0       	breq	.+24     	; 0x696 <Endpoint_Write_Control_Stream_LE+0xb6>
		  return ENDPOINT_RWCSTREAM_DeviceDisconnected;
		else if (USB_DeviceState_LCL == DEVICE_STATE_Suspended)
     67e:	85 30       	cpi	r24, 0x05	; 5
     680:	61 f0       	breq	.+24     	; 0x69a <Endpoint_Write_Control_Stream_LE+0xba>
			 *  \return Boolean \c true if current endpoint is has received an OUT packet, \c false otherwise.
			 */
			static inline bool Endpoint_IsOUTReceived(void) ATTR_WARN_UNUSED_RESULT ATTR_ALWAYS_INLINE;
			static inline bool Endpoint_IsOUTReceived(void)
			{
				return ((UEINTX & (1 << RXOUTI)) ? true : false);
     682:	80 91 e8 00 	lds	r24, 0x00E8
			LastPacketFull = (BytesInEndpoint == USB_Device_ControlEndpointSize);
			Endpoint_ClearIN();
		}
	}

	while (!(Endpoint_IsOUTReceived()))
     686:	82 ff       	sbrs	r24, 2
     688:	f7 cf       	rjmp	.-18     	; 0x678 <Endpoint_Write_Control_Stream_LE+0x98>
		  return ENDPOINT_RWCSTREAM_DeviceDisconnected;
		else if (USB_DeviceState_LCL == DEVICE_STATE_Suspended)
		  return ENDPOINT_RWCSTREAM_BusSuspended;
	}

	return ENDPOINT_RWCSTREAM_NoError;
     68a:	80 e0       	ldi	r24, 0x00	; 0
     68c:	08 95       	ret
		uint8_t USB_DeviceState_LCL = USB_DeviceState;

		if (USB_DeviceState_LCL == DEVICE_STATE_Unattached)
		  return ENDPOINT_RWCSTREAM_DeviceDisconnected;
		else if (USB_DeviceState_LCL == DEVICE_STATE_Suspended)
		  return ENDPOINT_RWCSTREAM_BusSuspended;
     68e:	83 e0       	ldi	r24, 0x03	; 3
     690:	08 95       	ret
		else if (Endpoint_IsSETUPReceived())
		  return ENDPOINT_RWCSTREAM_HostAborted;
     692:	81 e0       	ldi	r24, 0x01	; 1
     694:	08 95       	ret
	while (!(Endpoint_IsOUTReceived()))
	{
		uint8_t USB_DeviceState_LCL = USB_DeviceState;

		if (USB_DeviceState_LCL == DEVICE_STATE_Unattached)
		  return ENDPOINT_RWCSTREAM_DeviceDisconnected;
     696:	82 e0       	ldi	r24, 0x02	; 2
     698:	08 95       	ret
		else if (USB_DeviceState_LCL == DEVICE_STATE_Suspended)
		  return ENDPOINT_RWCSTREAM_BusSuspended;
     69a:	83 e0       	ldi	r24, 0x03	; 3
	}

	return ENDPOINT_RWCSTREAM_NoError;
}
     69c:	08 95       	ret

0000069e <Endpoint_Write_Control_PStream_LE>:
                            uint16_t Length)
{
	uint8_t* DataStream     = ((uint8_t*)Buffer + TEMPLATE_BUFFER_OFFSET(Length));
	bool     LastPacketFull = false;

	if (Length > USB_ControlRequest.wLength)
     69e:	40 91 cb 02 	lds	r20, 0x02CB
     6a2:	50 91 cc 02 	lds	r21, 0x02CC
     6a6:	46 17       	cp	r20, r22
     6a8:	57 07       	cpc	r21, r23
     6aa:	20 f4       	brcc	.+8      	; 0x6b4 <Endpoint_Write_Control_PStream_LE+0x16>
     6ac:	ba 01       	movw	r22, r20
     6ae:	fc 01       	movw	r30, r24
     6b0:	40 e0       	ldi	r20, 0x00	; 0
     6b2:	3d c0       	rjmp	.+122    	; 0x72e <Endpoint_Write_Control_PStream_LE+0x90>
	  Length = USB_ControlRequest.wLength;
	else if (!(Length))
     6b4:	61 15       	cp	r22, r1
     6b6:	71 05       	cpc	r23, r1
     6b8:	d1 f7       	brne	.-12     	; 0x6ae <Endpoint_Write_Control_PStream_LE+0x10>
			 */
			static inline void Endpoint_ClearIN(void) ATTR_ALWAYS_INLINE;
			static inline void Endpoint_ClearIN(void)
			{
				#if !defined(CONTROL_ONLY_DEVICE)
					UEINTX &= ~((1 << TXINI) | (1 << FIFOCON));
     6ba:	40 91 e8 00 	lds	r20, 0x00E8
     6be:	4e 77       	andi	r20, 0x7E	; 126
     6c0:	40 93 e8 00 	sts	0x00E8, r20
     6c4:	f4 cf       	rjmp	.-24     	; 0x6ae <Endpoint_Write_Control_PStream_LE+0x10>
	  Endpoint_ClearIN();

	while (Length || LastPacketFull)
	{
		uint8_t USB_DeviceState_LCL = USB_DeviceState;
     6c6:	8e b3       	in	r24, 0x1e	; 30

		if (USB_DeviceState_LCL == DEVICE_STATE_Unattached)
     6c8:	88 23       	and	r24, r24
     6ca:	09 f4       	brne	.+2      	; 0x6ce <Endpoint_Write_Control_PStream_LE+0x30>
     6cc:	45 c0       	rjmp	.+138    	; 0x758 <Endpoint_Write_Control_PStream_LE+0xba>
		  return ENDPOINT_RWCSTREAM_DeviceDisconnected;
		else if (USB_DeviceState_LCL == DEVICE_STATE_Suspended)
     6ce:	85 30       	cpi	r24, 0x05	; 5
     6d0:	09 f4       	brne	.+2      	; 0x6d4 <Endpoint_Write_Control_PStream_LE+0x36>
     6d2:	3e c0       	rjmp	.+124    	; 0x750 <Endpoint_Write_Control_PStream_LE+0xb2>
			 *  \return Boolean \c true if the selected endpoint has received a SETUP packet, \c false otherwise.
			 */
			static inline bool Endpoint_IsSETUPReceived(void) ATTR_WARN_UNUSED_RESULT ATTR_ALWAYS_INLINE;
			static inline bool Endpoint_IsSETUPReceived(void)
			{
				return ((UEINTX & (1 << RXSTPI)) ? true : false);
     6d4:	80 91 e8 00 	lds	r24, 0x00E8
		  return ENDPOINT_RWCSTREAM_BusSuspended;
		else if (Endpoint_IsSETUPReceived())
     6d8:	83 fd       	sbrc	r24, 3
     6da:	3c c0       	rjmp	.+120    	; 0x754 <Endpoint_Write_Control_PStream_LE+0xb6>
			 *  \return Boolean \c true if current endpoint is has received an OUT packet, \c false otherwise.
			 */
			static inline bool Endpoint_IsOUTReceived(void) ATTR_WARN_UNUSED_RESULT ATTR_ALWAYS_INLINE;
			static inline bool Endpoint_IsOUTReceived(void)
			{
				return ((UEINTX & (1 << RXOUTI)) ? true : false);
     6dc:	80 91 e8 00 	lds	r24, 0x00E8
		  return ENDPOINT_RWCSTREAM_HostAborted;
		else if (Endpoint_IsOUTReceived())
     6e0:	82 fd       	sbrc	r24, 2
     6e2:	30 c0       	rjmp	.+96     	; 0x744 <Endpoint_Write_Control_PStream_LE+0xa6>
			 *  \return Boolean \c true if the current endpoint is ready for an IN packet, \c false otherwise.
			 */
			static inline bool Endpoint_IsINReady(void) ATTR_WARN_UNUSED_RESULT ATTR_ALWAYS_INLINE;
			static inline bool Endpoint_IsINReady(void)
			{
				return ((UEINTX & (1 << TXINI)) ? true : false);
     6e4:	80 91 e8 00 	lds	r24, 0x00E8
		  break;

		if (Endpoint_IsINReady())
     6e8:	80 ff       	sbrs	r24, 0
     6ea:	21 c0       	rjmp	.+66     	; 0x72e <Endpoint_Write_Control_PStream_LE+0x90>
			static inline uint16_t Endpoint_BytesInEndpoint(void)
			{
				#if (defined(USB_SERIES_6_AVR) || defined(USB_SERIES_7_AVR))
					return UEBCX;
				#elif defined(USB_SERIES_4_AVR)
					return (((uint16_t)UEBCHX << 8) | UEBCLX);
     6ec:	90 91 f3 00 	lds	r25, 0x00F3
     6f0:	80 91 f2 00 	lds	r24, 0x00F2
     6f4:	39 2f       	mov	r19, r25
     6f6:	20 e0       	ldi	r18, 0x00	; 0
     6f8:	90 e0       	ldi	r25, 0x00	; 0
     6fa:	82 2b       	or	r24, r18
     6fc:	93 2b       	or	r25, r19
		{
			uint16_t BytesInEndpoint = Endpoint_BytesInEndpoint();

			while (Length && (BytesInEndpoint < USB_Device_ControlEndpointSize))
     6fe:	07 c0       	rjmp	.+14     	; 0x70e <Endpoint_Write_Control_PStream_LE+0x70>
			{
				TEMPLATE_TRANSFER_BYTE(DataStream);
     700:	44 91       	lpm	r20, Z
			 *  \param[in] Data  Data to write into the the currently selected endpoint's FIFO buffer.
			 */
			static inline void Endpoint_Write_8(const uint8_t Data) ATTR_ALWAYS_INLINE;
			static inline void Endpoint_Write_8(const uint8_t Data)
			{
				UEDATX = Data;
     702:	40 93 f1 00 	sts	0x00F1, r20
				TEMPLATE_BUFFER_MOVE(DataStream, 1);
     706:	31 96       	adiw	r30, 0x01	; 1
				Length--;
     708:	61 50       	subi	r22, 0x01	; 1
     70a:	70 40       	sbci	r23, 0x00	; 0
				BytesInEndpoint++;
     70c:	01 96       	adiw	r24, 0x01	; 1

		if (Endpoint_IsINReady())
		{
			uint16_t BytesInEndpoint = Endpoint_BytesInEndpoint();

			while (Length && (BytesInEndpoint < USB_Device_ControlEndpointSize))
     70e:	61 15       	cp	r22, r1
     710:	71 05       	cpc	r23, r1
     712:	19 f0       	breq	.+6      	; 0x71a <Endpoint_Write_Control_PStream_LE+0x7c>
     714:	88 30       	cpi	r24, 0x08	; 8
     716:	91 05       	cpc	r25, r1
     718:	98 f3       	brcs	.-26     	; 0x700 <Endpoint_Write_Control_PStream_LE+0x62>
				TEMPLATE_BUFFER_MOVE(DataStream, 1);
				Length--;
				BytesInEndpoint++;
			}

			LastPacketFull = (BytesInEndpoint == USB_Device_ControlEndpointSize);
     71a:	41 e0       	ldi	r20, 0x01	; 1
     71c:	88 30       	cpi	r24, 0x08	; 8
     71e:	91 05       	cpc	r25, r1
     720:	09 f0       	breq	.+2      	; 0x724 <Endpoint_Write_Control_PStream_LE+0x86>
     722:	40 e0       	ldi	r20, 0x00	; 0
			 */
			static inline void Endpoint_ClearIN(void) ATTR_ALWAYS_INLINE;
			static inline void Endpoint_ClearIN(void)
			{
				#if !defined(CONTROL_ONLY_DEVICE)
					UEINTX &= ~((1 << TXINI) | (1 << FIFOCON));
     724:	80 91 e8 00 	lds	r24, 0x00E8
     728:	8e 77       	andi	r24, 0x7E	; 126
     72a:	80 93 e8 00 	sts	0x00E8, r24
	if (Length > USB_ControlRequest.wLength)
	  Length = USB_ControlRequest.wLength;
	else if (!(Length))
	  Endpoint_ClearIN();

	while (Length || LastPacketFull)
     72e:	61 15       	cp	r22, r1
     730:	71 05       	cpc	r23, r1
     732:	49 f6       	brne	.-110    	; 0x6c6 <Endpoint_Write_Control_PStream_LE+0x28>
     734:	44 23       	and	r20, r20
     736:	39 f6       	brne	.-114    	; 0x6c6 <Endpoint_Write_Control_PStream_LE+0x28>
     738:	05 c0       	rjmp	.+10     	; 0x744 <Endpoint_Write_Control_PStream_LE+0xa6>
		}
	}

	while (!(Endpoint_IsOUTReceived()))
	{
		uint8_t USB_DeviceState_LCL = USB_DeviceState;
     73a:	8e b3       	in	r24, 0x1e	; 30

		if (USB_DeviceState_LCL == DEVICE_STATE_Unattached)
     73c:	88 23       	and	r24, r24
     73e:	61 f0       	breq	.+24     	; 0x758 <Endpoint_Write_Control_PStream_LE+0xba>
		  return ENDPOINT_RWCSTREAM_DeviceDisconnected;
		else if (USB_DeviceState_LCL == DEVICE_STATE_Suspended)
     740:	85 30       	cpi	r24, 0x05	; 5
     742:	61 f0       	breq	.+24     	; 0x75c <Endpoint_Write_Control_PStream_LE+0xbe>
			 *  \return Boolean \c true if current endpoint is has received an OUT packet, \c false otherwise.
			 */
			static inline bool Endpoint_IsOUTReceived(void) ATTR_WARN_UNUSED_RESULT ATTR_ALWAYS_INLINE;
			static inline bool Endpoint_IsOUTReceived(void)
			{
				return ((UEINTX & (1 << RXOUTI)) ? true : false);
     744:	80 91 e8 00 	lds	r24, 0x00E8
			LastPacketFull = (BytesInEndpoint == USB_Device_ControlEndpointSize);
			Endpoint_ClearIN();
		}
	}

	while (!(Endpoint_IsOUTReceived()))
     748:	82 ff       	sbrs	r24, 2
     74a:	f7 cf       	rjmp	.-18     	; 0x73a <Endpoint_Write_Control_PStream_LE+0x9c>
		  return ENDPOINT_RWCSTREAM_DeviceDisconnected;
		else if (USB_DeviceState_LCL == DEVICE_STATE_Suspended)
		  return ENDPOINT_RWCSTREAM_BusSuspended;
	}

	return ENDPOINT_RWCSTREAM_NoError;
     74c:	80 e0       	ldi	r24, 0x00	; 0
     74e:	08 95       	ret
		uint8_t USB_DeviceState_LCL = USB_DeviceState;

		if (USB_DeviceState_LCL == DEVICE_STATE_Unattached)
		  return ENDPOINT_RWCSTREAM_DeviceDisconnected;
		else if (USB_DeviceState_LCL == DEVICE_STATE_Suspended)
		  return ENDPOINT_RWCSTREAM_BusSuspended;
     750:	83 e0       	ldi	r24, 0x03	; 3
     752:	08 95       	ret
		else if (Endpoint_IsSETUPReceived())
		  return ENDPOINT_RWCSTREAM_HostAborted;
     754:	81 e0       	ldi	r24, 0x01	; 1
     756:	08 95       	ret
	while (!(Endpoint_IsOUTReceived()))
	{
		uint8_t USB_DeviceState_LCL = USB_DeviceState;

		if (USB_DeviceState_LCL == DEVICE_STATE_Unattached)
		  return ENDPOINT_RWCSTREAM_DeviceDisconnected;
     758:	82 e0       	ldi	r24, 0x02	; 2
     75a:	08 95       	ret
		else if (USB_DeviceState_LCL == DEVICE_STATE_Suspended)
		  return ENDPOINT_RWCSTREAM_BusSuspended;
     75c:	83 e0       	ldi	r24, 0x03	; 3
	}

	return ENDPOINT_RWCSTREAM_NoError;
}
     75e:	08 95       	ret

00000760 <Endpoint_ConfigureEndpoint_Prv>:
	UECFG0X = UECFG0XData;
	UECFG1X = UECFG1XData;

	return Endpoint_IsConfigured();
#else
	for (uint8_t EPNum = Number; EPNum < ENDPOINT_TOTAL_ENDPOINTS; EPNum++)
     760:	98 2f       	mov	r25, r24
     762:	2a c0       	rjmp	.+84     	; 0x7b8 <Endpoint_ConfigureEndpoint_Prv+0x58>
			 */
			static inline void Endpoint_SelectEndpoint(const uint8_t Address) ATTR_ALWAYS_INLINE;
			static inline void Endpoint_SelectEndpoint(const uint8_t Address)
			{
				#if !defined(CONTROL_ONLY_DEVICE)
					UENUM = (Address & ENDPOINT_EPNUM_MASK);
     764:	90 93 e9 00 	sts	0x00E9, r25
		uint8_t UECFG1XTemp;
		uint8_t UEIENXTemp;

		Endpoint_SelectEndpoint(EPNum);

		if (EPNum == Number)
     768:	98 17       	cp	r25, r24
     76a:	39 f0       	breq	.+14     	; 0x77a <Endpoint_ConfigureEndpoint_Prv+0x1a>
			UECFG1XTemp = UECFG1XData;
			UEIENXTemp  = 0;
		}
		else
		{
			UECFG0XTemp = UECFG0X;
     76c:	70 91 ec 00 	lds	r23, 0x00EC
			UECFG1XTemp = UECFG1X;
     770:	20 91 ed 00 	lds	r18, 0x00ED
			UEIENXTemp  = UEIENX;
     774:	50 91 f0 00 	lds	r21, 0x00F0
     778:	03 c0       	rjmp	.+6      	; 0x780 <Endpoint_ConfigureEndpoint_Prv+0x20>
		Endpoint_SelectEndpoint(EPNum);

		if (EPNum == Number)
		{
			UECFG0XTemp = UECFG0XData;
			UECFG1XTemp = UECFG1XData;
     77a:	24 2f       	mov	r18, r20

		Endpoint_SelectEndpoint(EPNum);

		if (EPNum == Number)
		{
			UECFG0XTemp = UECFG0XData;
     77c:	76 2f       	mov	r23, r22
			UECFG1XTemp = UECFG1XData;
			UEIENXTemp  = 0;
     77e:	50 e0       	ldi	r21, 0x00	; 0
			UECFG0XTemp = UECFG0X;
			UECFG1XTemp = UECFG1X;
			UEIENXTemp  = UEIENX;
		}

		if (!(UECFG1XTemp & (1 << ALLOC)))
     780:	21 ff       	sbrs	r18, 1
     782:	19 c0       	rjmp	.+50     	; 0x7b6 <Endpoint_ConfigureEndpoint_Prv+0x56>
			 *  to and from a host.
			 */
			static inline void Endpoint_DisableEndpoint(void) ATTR_ALWAYS_INLINE;
			static inline void Endpoint_DisableEndpoint(void)
			{
				UECONX &= ~(1 << EPEN);
     784:	30 91 eb 00 	lds	r19, 0x00EB
     788:	3e 7f       	andi	r19, 0xFE	; 254
     78a:	30 93 eb 00 	sts	0x00EB, r19
		  continue;

		Endpoint_DisableEndpoint();
		UECFG1X &= ~(1 << ALLOC);
     78e:	30 91 ed 00 	lds	r19, 0x00ED
     792:	3d 7f       	andi	r19, 0xFD	; 253
     794:	30 93 ed 00 	sts	0x00ED, r19
			 *  \note Endpoints must first be configured properly via \ref Endpoint_ConfigureEndpoint().
			 */
			static inline void Endpoint_EnableEndpoint(void) ATTR_ALWAYS_INLINE;
			static inline void Endpoint_EnableEndpoint(void)
			{
				UECONX |= (1 << EPEN);
     798:	30 91 eb 00 	lds	r19, 0x00EB
     79c:	31 60       	ori	r19, 0x01	; 1
     79e:	30 93 eb 00 	sts	0x00EB, r19

		Endpoint_EnableEndpoint();
		UECFG0X = UECFG0XTemp;
     7a2:	70 93 ec 00 	sts	0x00EC, r23
		UECFG1X = UECFG1XTemp;
     7a6:	20 93 ed 00 	sts	0x00ED, r18
		UEIENX  = UEIENXTemp;
     7aa:	50 93 f0 00 	sts	0x00F0, r21
			 *  \return Boolean \c true if the currently selected endpoint has been configured, \c false otherwise.
			 */
			static inline bool Endpoint_IsConfigured(void) ATTR_WARN_UNUSED_RESULT ATTR_ALWAYS_INLINE;
			static inline bool Endpoint_IsConfigured(void)
			{
				return ((UESTA0X & (1 << CFGOK)) ? true : false);
     7ae:	20 91 ee 00 	lds	r18, 0x00EE

		if (!(Endpoint_IsConfigured()))
     7b2:	27 ff       	sbrs	r18, 7
     7b4:	08 c0       	rjmp	.+16     	; 0x7c6 <Endpoint_ConfigureEndpoint_Prv+0x66>
	UECFG0X = UECFG0XData;
	UECFG1X = UECFG1XData;

	return Endpoint_IsConfigured();
#else
	for (uint8_t EPNum = Number; EPNum < ENDPOINT_TOTAL_ENDPOINTS; EPNum++)
     7b6:	9f 5f       	subi	r25, 0xFF	; 255
     7b8:	97 30       	cpi	r25, 0x07	; 7
     7ba:	a0 f2       	brcs	.-88     	; 0x764 <Endpoint_ConfigureEndpoint_Prv+0x4>
			 */
			static inline void Endpoint_SelectEndpoint(const uint8_t Address) ATTR_ALWAYS_INLINE;
			static inline void Endpoint_SelectEndpoint(const uint8_t Address)
			{
				#if !defined(CONTROL_ONLY_DEVICE)
					UENUM = (Address & ENDPOINT_EPNUM_MASK);
     7bc:	8f 70       	andi	r24, 0x0F	; 15
     7be:	80 93 e9 00 	sts	0x00E9, r24
		if (!(Endpoint_IsConfigured()))
		  return false;
	}

	Endpoint_SelectEndpoint(Number);
	return true;
     7c2:	81 e0       	ldi	r24, 0x01	; 1
     7c4:	08 95       	ret
		UECFG0X = UECFG0XTemp;
		UECFG1X = UECFG1XTemp;
		UEIENX  = UEIENXTemp;

		if (!(Endpoint_IsConfigured()))
		  return false;
     7c6:	80 e0       	ldi	r24, 0x00	; 0
	}

	Endpoint_SelectEndpoint(Number);
	return true;
#endif
}
     7c8:	08 95       	ret

000007ca <Endpoint_ConfigureEndpointTable>:
uint8_t USB_Device_ControlEndpointSize = ENDPOINT_CONTROLEP_DEFAULT_SIZE;
#endif

bool Endpoint_ConfigureEndpointTable(const USB_Endpoint_Table_t* const Table,
                                     const uint8_t Entries)
{
     7ca:	0f 93       	push	r16
     7cc:	1f 93       	push	r17
     7ce:	cf 93       	push	r28
     7d0:	df 93       	push	r29
     7d2:	16 2f       	mov	r17, r22
	{
		if (!(Table[i].Address))
		  continue;
	
		if (!(Endpoint_ConfigureEndpoint(Table[i].Address, Table[i].Type, Table[i].Size, Table[i].Banks)))
		  return false;
     7d4:	ec 01       	movw	r28, r24
#endif

bool Endpoint_ConfigureEndpointTable(const USB_Endpoint_Table_t* const Table,
                                     const uint8_t Entries)
{
	for (uint8_t i = 0; i < Entries; i++)
     7d6:	00 e0       	ldi	r16, 0x00	; 0
     7d8:	2a c0       	rjmp	.+84     	; 0x82e <Endpoint_ConfigureEndpointTable+0x64>
	{
		if (!(Table[i].Address))
     7da:	98 81       	ld	r25, Y
     7dc:	99 23       	and	r25, r25
     7de:	29 f1       	breq	.+74     	; 0x82a <Endpoint_ConfigureEndpointTable+0x60>
		  continue;
	
		if (!(Endpoint_ConfigureEndpoint(Table[i].Address, Table[i].Type, Table[i].Size, Table[i].Banks)))
     7e0:	6b 81       	ldd	r22, Y+3	; 0x03
     7e2:	e9 81       	ldd	r30, Y+1	; 0x01
     7e4:	fa 81       	ldd	r31, Y+2	; 0x02
     7e6:	2c 81       	ldd	r18, Y+4	; 0x04
			static inline bool Endpoint_ConfigureEndpoint(const uint8_t Address,
			                                              const uint8_t Type,
			                                              const uint16_t Size,
			                                              const uint8_t Banks)
			{
				uint8_t Number = (Address & ENDPOINT_EPNUM_MASK);
     7e8:	89 2f       	mov	r24, r25
     7ea:	8f 70       	andi	r24, 0x0F	; 15

				if (Number >= ENDPOINT_TOTAL_ENDPOINTS)
     7ec:	87 30       	cpi	r24, 0x07	; 7
     7ee:	18 f5       	brcc	.+70     	; 0x836 <Endpoint_ConfigureEndpointTable+0x6c>
				  return false;

				return Endpoint_ConfigureEndpoint_Prv(Number,
				                                      ((Type << EPTYPE0) | ((Address & ENDPOINT_DIR_IN) ? (1 << EPDIR) : 0)),
     7f0:	62 95       	swap	r22
     7f2:	66 0f       	add	r22, r22
     7f4:	66 0f       	add	r22, r22
     7f6:	60 7c       	andi	r22, 0xC0	; 192
     7f8:	99 1f       	adc	r25, r25
     7fa:	99 27       	eor	r25, r25
     7fc:	99 1f       	adc	r25, r25
				uint8_t Number = (Address & ENDPOINT_EPNUM_MASK);

				if (Number >= ENDPOINT_TOTAL_ENDPOINTS)
				  return false;

				return Endpoint_ConfigureEndpoint_Prv(Number,
     7fe:	69 2b       	or	r22, r25
     800:	22 30       	cpi	r18, 0x02	; 2
     802:	10 f0       	brcs	.+4      	; 0x808 <Endpoint_ConfigureEndpointTable+0x3e>
     804:	96 e0       	ldi	r25, 0x06	; 6
     806:	01 c0       	rjmp	.+2      	; 0x80a <Endpoint_ConfigureEndpointTable+0x40>
     808:	92 e0       	ldi	r25, 0x02	; 2
			static inline uint8_t Endpoint_BytesToEPSizeMask(const uint16_t Bytes) ATTR_WARN_UNUSED_RESULT ATTR_CONST
			                                                                       ATTR_ALWAYS_INLINE;
			static inline uint8_t Endpoint_BytesToEPSizeMask(const uint16_t Bytes)
			{
				uint8_t  MaskVal    = 0;
				uint16_t CheckBytes = 8;
     80a:	28 e0       	ldi	r18, 0x08	; 8
     80c:	30 e0       	ldi	r19, 0x00	; 0
		/* Inline Functions: */
			static inline uint8_t Endpoint_BytesToEPSizeMask(const uint16_t Bytes) ATTR_WARN_UNUSED_RESULT ATTR_CONST
			                                                                       ATTR_ALWAYS_INLINE;
			static inline uint8_t Endpoint_BytesToEPSizeMask(const uint16_t Bytes)
			{
				uint8_t  MaskVal    = 0;
     80e:	40 e0       	ldi	r20, 0x00	; 0
     810:	03 c0       	rjmp	.+6      	; 0x818 <Endpoint_ConfigureEndpointTable+0x4e>
				uint16_t CheckBytes = 8;

				while (CheckBytes < Bytes)
				{
					MaskVal++;
     812:	4f 5f       	subi	r20, 0xFF	; 255
					CheckBytes <<= 1;
     814:	22 0f       	add	r18, r18
     816:	33 1f       	adc	r19, r19
			static inline uint8_t Endpoint_BytesToEPSizeMask(const uint16_t Bytes)
			{
				uint8_t  MaskVal    = 0;
				uint16_t CheckBytes = 8;

				while (CheckBytes < Bytes)
     818:	2e 17       	cp	r18, r30
     81a:	3f 07       	cpc	r19, r31
     81c:	d0 f3       	brcs	.-12     	; 0x812 <Endpoint_ConfigureEndpointTable+0x48>
				{
					MaskVal++;
					CheckBytes <<= 1;
				}

				return (MaskVal << EPSIZE0);
     81e:	42 95       	swap	r20
     820:	40 7f       	andi	r20, 0xF0	; 240
				uint8_t Number = (Address & ENDPOINT_EPNUM_MASK);

				if (Number >= ENDPOINT_TOTAL_ENDPOINTS)
				  return false;

				return Endpoint_ConfigureEndpoint_Prv(Number,
     822:	49 2b       	or	r20, r25
     824:	9d df       	rcall	.-198    	; 0x760 <Endpoint_ConfigureEndpoint_Prv>
     826:	88 23       	and	r24, r24
     828:	31 f0       	breq	.+12     	; 0x836 <Endpoint_ConfigureEndpointTable+0x6c>
     82a:	0f 5f       	subi	r16, 0xFF	; 255
#endif

bool Endpoint_ConfigureEndpointTable(const USB_Endpoint_Table_t* const Table,
                                     const uint8_t Entries)
{
	for (uint8_t i = 0; i < Entries; i++)
     82c:	25 96       	adiw	r28, 0x05	; 5
     82e:	01 17       	cp	r16, r17
     830:	a1 f6       	brne	.-88     	; 0x7da <Endpoint_ConfigureEndpointTable+0x10>
     832:	81 e0       	ldi	r24, 0x01	; 1
	
		if (!(Endpoint_ConfigureEndpoint(Table[i].Address, Table[i].Type, Table[i].Size, Table[i].Banks)))
		  return false;
	}
	
	return true;
     834:	01 c0       	rjmp	.+2      	; 0x838 <Endpoint_ConfigureEndpointTable+0x6e>
     836:	80 e0       	ldi	r24, 0x00	; 0
	{
		if (!(Table[i].Address))
		  continue;
	
		if (!(Endpoint_ConfigureEndpoint(Table[i].Address, Table[i].Type, Table[i].Size, Table[i].Banks)))
		  return false;
     838:	df 91       	pop	r29
	}
	
	return true;
}
     83a:	cf 91       	pop	r28
     83c:	1f 91       	pop	r17
     83e:	0f 91       	pop	r16
     840:	08 95       	ret

00000842 <Endpoint_ClearStatusStage>:
     842:	80 91 c5 02 	lds	r24, 0x02C5
	}
}

void Endpoint_ClearStatusStage(void)
{
	if (USB_ControlRequest.bmRequestType & REQDIR_DEVICETOHOST)
     846:	87 ff       	sbrs	r24, 7
     848:	11 c0       	rjmp	.+34     	; 0x86c <Endpoint_ClearStatusStage+0x2a>
     84a:	03 c0       	rjmp	.+6      	; 0x852 <Endpoint_ClearStatusStage+0x10>
	{
		while (!(Endpoint_IsOUTReceived()))
		{
			if (USB_DeviceState == DEVICE_STATE_Unattached)
     84c:	8e b3       	in	r24, 0x1e	; 30
     84e:	88 23       	and	r24, r24
     850:	b1 f0       	breq	.+44     	; 0x87e <Endpoint_ClearStatusStage+0x3c>
			 *  \return Boolean \c true if current endpoint is has received an OUT packet, \c false otherwise.
			 */
			static inline bool Endpoint_IsOUTReceived(void) ATTR_WARN_UNUSED_RESULT ATTR_ALWAYS_INLINE;
			static inline bool Endpoint_IsOUTReceived(void)
			{
				return ((UEINTX & (1 << RXOUTI)) ? true : false);
     852:	80 91 e8 00 	lds	r24, 0x00E8

void Endpoint_ClearStatusStage(void)
{
	if (USB_ControlRequest.bmRequestType & REQDIR_DEVICETOHOST)
	{
		while (!(Endpoint_IsOUTReceived()))
     856:	82 ff       	sbrs	r24, 2
     858:	f9 cf       	rjmp	.-14     	; 0x84c <Endpoint_ClearStatusStage+0xa>
			 */
			static inline void Endpoint_ClearOUT(void) ATTR_ALWAYS_INLINE;
			static inline void Endpoint_ClearOUT(void)
			{
				#if !defined(CONTROL_ONLY_DEVICE)
					UEINTX &= ~((1 << RXOUTI) | (1 << FIFOCON));
     85a:	80 91 e8 00 	lds	r24, 0x00E8
     85e:	8b 77       	andi	r24, 0x7B	; 123
     860:	80 93 e8 00 	sts	0x00E8, r24
     864:	08 95       	ret
	}
	else
	{
		while (!(Endpoint_IsINReady()))
		{
			if (USB_DeviceState == DEVICE_STATE_Unattached)
     866:	8e b3       	in	r24, 0x1e	; 30
     868:	88 23       	and	r24, r24
     86a:	49 f0       	breq	.+18     	; 0x87e <Endpoint_ClearStatusStage+0x3c>
			 *  \return Boolean \c true if the current endpoint is ready for an IN packet, \c false otherwise.
			 */
			static inline bool Endpoint_IsINReady(void) ATTR_WARN_UNUSED_RESULT ATTR_ALWAYS_INLINE;
			static inline bool Endpoint_IsINReady(void)
			{
				return ((UEINTX & (1 << TXINI)) ? true : false);
     86c:	80 91 e8 00 	lds	r24, 0x00E8

		Endpoint_ClearOUT();
	}
	else
	{
		while (!(Endpoint_IsINReady()))
     870:	80 ff       	sbrs	r24, 0
     872:	f9 cf       	rjmp	.-14     	; 0x866 <Endpoint_ClearStatusStage+0x24>
			 */
			static inline void Endpoint_ClearIN(void) ATTR_ALWAYS_INLINE;
			static inline void Endpoint_ClearIN(void)
			{
				#if !defined(CONTROL_ONLY_DEVICE)
					UEINTX &= ~((1 << TXINI) | (1 << FIFOCON));
     874:	80 91 e8 00 	lds	r24, 0x00E8
     878:	8e 77       	andi	r24, 0x7E	; 126
     87a:	80 93 e8 00 	sts	0x00E8, r24
     87e:	08 95       	ret

00000880 <Endpoint_WaitUntilReady>:
			 *  \return Current USB frame number from the USB controller.
			 */
			static inline uint16_t USB_Device_GetFrameNumber(void) ATTR_ALWAYS_INLINE ATTR_WARN_UNUSED_RESULT;
			static inline uint16_t USB_Device_GetFrameNumber(void)
			{
				return UDFNUM;
     880:	80 91 e4 00 	lds	r24, 0x00E4
     884:	90 91 e5 00 	lds	r25, 0x00E5
     888:	45 e6       	ldi	r20, 0x65	; 101
     88a:	01 c0       	rjmp	.+2      	; 0x88e <Endpoint_WaitUntilReady+0xe>
     88c:	c9 01       	movw	r24, r18
			 *  \return The currently selected endpoint's direction, as a \c ENDPOINT_DIR_* mask.
			 */
			static inline uint8_t Endpoint_GetEndpointDirection(void) ATTR_WARN_UNUSED_RESULT ATTR_ALWAYS_INLINE;
			static inline uint8_t Endpoint_GetEndpointDirection(void)
			{
				return (UECFG0X & (1 << EPDIR)) ? ENDPOINT_DIR_IN : ENDPOINT_DIR_OUT;
     88e:	20 91 ec 00 	lds	r18, 0x00EC
     892:	20 ff       	sbrs	r18, 0
     894:	22 c0       	rjmp	.+68     	; 0x8da <Endpoint_WaitUntilReady+0x5a>
			 *  \return Boolean \c true if the current endpoint is ready for an IN packet, \c false otherwise.
			 */
			static inline bool Endpoint_IsINReady(void) ATTR_WARN_UNUSED_RESULT ATTR_ALWAYS_INLINE;
			static inline bool Endpoint_IsINReady(void)
			{
				return ((UEINTX & (1 << TXINI)) ? true : false);
     896:	20 91 e8 00 	lds	r18, 0x00E8

	for (;;)
	{
		if (Endpoint_GetEndpointDirection() == ENDPOINT_DIR_IN)
		{
			if (Endpoint_IsINReady())
     89a:	20 fd       	sbrc	r18, 0
     89c:	14 c0       	rjmp	.+40     	; 0x8c6 <Endpoint_WaitUntilReady+0x46>
		{
			if (Endpoint_IsOUTReceived())
			  return ENDPOINT_READYWAIT_NoError;
		}

		uint8_t USB_DeviceState_LCL = USB_DeviceState;
     89e:	2e b3       	in	r18, 0x1e	; 30

		if (USB_DeviceState_LCL == DEVICE_STATE_Unattached)
     8a0:	22 23       	and	r18, r18
     8a2:	99 f0       	breq	.+38     	; 0x8ca <Endpoint_WaitUntilReady+0x4a>
		  return ENDPOINT_READYWAIT_DeviceDisconnected;
		else if (USB_DeviceState_LCL == DEVICE_STATE_Suspended)
     8a4:	25 30       	cpi	r18, 0x05	; 5
     8a6:	99 f0       	breq	.+38     	; 0x8ce <Endpoint_WaitUntilReady+0x4e>
			 *  \return Boolean \c true if the currently selected endpoint is stalled, \c false otherwise.
			 */
			static inline bool Endpoint_IsStalled(void) ATTR_WARN_UNUSED_RESULT ATTR_ALWAYS_INLINE;
			static inline bool Endpoint_IsStalled(void)
			{
				return ((UECONX & (1 << STALLRQ)) ? true : false);
     8a8:	20 91 eb 00 	lds	r18, 0x00EB
		  return ENDPOINT_READYWAIT_BusSuspended;
		else if (Endpoint_IsStalled())
     8ac:	25 fd       	sbrc	r18, 5
     8ae:	11 c0       	rjmp	.+34     	; 0x8d2 <Endpoint_WaitUntilReady+0x52>
     8b0:	20 91 e4 00 	lds	r18, 0x00E4
     8b4:	30 91 e5 00 	lds	r19, 0x00E5
		  return ENDPOINT_READYWAIT_EndpointStalled;

		uint16_t CurrentFrameNumber = USB_Device_GetFrameNumber();

		if (CurrentFrameNumber != PreviousFrameNumber)
     8b8:	28 17       	cp	r18, r24
     8ba:	39 07       	cpc	r19, r25
     8bc:	41 f3       	breq	.-48     	; 0x88e <Endpoint_WaitUntilReady+0xe>
     8be:	41 50       	subi	r20, 0x01	; 1
		{
			PreviousFrameNumber = CurrentFrameNumber;

			if (!(TimeoutMSRem--))
     8c0:	29 f7       	brne	.-54     	; 0x88c <Endpoint_WaitUntilReady+0xc>
			  return ENDPOINT_READYWAIT_Timeout;
     8c2:	84 e0       	ldi	r24, 0x04	; 4
     8c4:	08 95       	ret
	for (;;)
	{
		if (Endpoint_GetEndpointDirection() == ENDPOINT_DIR_IN)
		{
			if (Endpoint_IsINReady())
			  return ENDPOINT_READYWAIT_NoError;
     8c6:	80 e0       	ldi	r24, 0x00	; 0
     8c8:	08 95       	ret
		}

		uint8_t USB_DeviceState_LCL = USB_DeviceState;

		if (USB_DeviceState_LCL == DEVICE_STATE_Unattached)
		  return ENDPOINT_READYWAIT_DeviceDisconnected;
     8ca:	82 e0       	ldi	r24, 0x02	; 2
     8cc:	08 95       	ret
		else if (USB_DeviceState_LCL == DEVICE_STATE_Suspended)
		  return ENDPOINT_READYWAIT_BusSuspended;
     8ce:	83 e0       	ldi	r24, 0x03	; 3
     8d0:	08 95       	ret
		else if (Endpoint_IsStalled())
		  return ENDPOINT_READYWAIT_EndpointStalled;
     8d2:	81 e0       	ldi	r24, 0x01	; 1
     8d4:	08 95       	ret
			  return ENDPOINT_READYWAIT_NoError;
		}
		else
		{
			if (Endpoint_IsOUTReceived())
			  return ENDPOINT_READYWAIT_NoError;
     8d6:	80 e0       	ldi	r24, 0x00	; 0

			if (!(TimeoutMSRem--))
			  return ENDPOINT_READYWAIT_Timeout;
		}
	}
}
     8d8:	08 95       	ret
			 *  \return Boolean \c true if current endpoint is has received an OUT packet, \c false otherwise.
			 */
			static inline bool Endpoint_IsOUTReceived(void) ATTR_WARN_UNUSED_RESULT ATTR_ALWAYS_INLINE;
			static inline bool Endpoint_IsOUTReceived(void)
			{
				return ((UEINTX & (1 << RXOUTI)) ? true : false);
     8da:	20 91 e8 00 	lds	r18, 0x00E8
			if (Endpoint_IsINReady())
			  return ENDPOINT_READYWAIT_NoError;
		}
		else
		{
			if (Endpoint_IsOUTReceived())
     8de:	22 ff       	sbrs	r18, 2
     8e0:	de cf       	rjmp	.-68     	; 0x89e <Endpoint_WaitUntilReady+0x1e>
     8e2:	f9 cf       	rjmp	.-14     	; 0x8d6 <Endpoint_WaitUntilReady+0x56>

000008e4 <USB_ResetInterface>:

	USB_IsInitialized = false;
}

void USB_ResetInterface(void)
{
     8e4:	0f 93       	push	r16
     8e6:	1f 93       	push	r17
     8e8:	cf 93       	push	r28
     8ea:	df 93       	push	r29
	#if defined(USB_CAN_BE_BOTH)
	bool UIDModeSelectEnabled = ((UHWCON & (1 << UIDE)) != 0);
	#endif

	USB_INT_DisableAllInterrupts();
     8ec:	4a d0       	rcall	.+148    	; 0x982 <USB_INT_DisableAllInterrupts>
     8ee:	51 d0       	rcall	.+162    	; 0x992 <USB_INT_ClearAllInterrupts>
	USB_INT_ClearAllInterrupts();
     8f0:	c8 ed       	ldi	r28, 0xD8	; 216
     8f2:	d0 e0       	ldi	r29, 0x00	; 0
			}

			static inline void USB_Controller_Reset(void) ATTR_ALWAYS_INLINE;
			static inline void USB_Controller_Reset(void)
			{
				USBCON &= ~(1 << USBE);
     8f4:	88 81       	ld	r24, Y
     8f6:	8f 77       	andi	r24, 0x7F	; 127
     8f8:	88 83       	st	Y, r24
     8fa:	88 81       	ld	r24, Y
     8fc:	80 68       	ori	r24, 0x80	; 128
				USBCON |=  (1 << USBE);
     8fe:	88 83       	st	Y, r24
     900:	88 81       	ld	r24, Y
     902:	8f 7d       	andi	r24, 0xDF	; 223
			}

			static inline void USB_CLK_Unfreeze(void) ATTR_ALWAYS_INLINE;
			static inline void USB_CLK_Unfreeze(void)
			{
				USBCON &= ~(1 << FRZCLK);
     904:	88 83       	st	Y, r24
     906:	19 bc       	out	0x29, r1	; 41
     908:	1e ba       	out	0x1e, r1	; 30
			}

			static inline void USB_PLL_Off(void) ATTR_ALWAYS_INLINE;
			static inline void USB_PLL_Off(void)
			{
				PLLCSR = 0;
     90a:	10 92 c1 02 	sts	0x02C1, r1

#if defined(USB_CAN_BE_DEVICE)
static void USB_Init_Device(void)
{
	USB_DeviceState                 = DEVICE_STATE_Unattached;
	USB_Device_ConfigurationNumber  = 0;
     90e:	10 92 c3 02 	sts	0x02C3, r1

	#if !defined(NO_DEVICE_REMOTE_WAKEUP)
	USB_Device_RemoteWakeupEnabled  = false;
     912:	10 92 c2 02 	sts	0x02C2, r1
	#endif

	#if !defined(NO_DEVICE_SELF_POWER)
	USB_Device_CurrentlySelfPowered = false;
     916:	00 ee       	ldi	r16, 0xE0	; 224
     918:	10 e0       	ldi	r17, 0x00	; 0
			}

			static inline void USB_Device_SetFullSpeed(void) ATTR_ALWAYS_INLINE;
			static inline void USB_Device_SetFullSpeed(void)
			{
				UDCON &= ~(1 << LSM);
     91a:	f8 01       	movw	r30, r16
     91c:	80 81       	ld	r24, Z
     91e:	8b 7f       	andi	r24, 0xFB	; 251
     920:	80 83       	st	Z, r24
     922:	88 81       	ld	r24, Y
     924:	81 60       	ori	r24, 0x01	; 1
			{
				switch (Interrupt)
				{
					#if (defined(USB_SERIES_4_AVR) || defined(USB_SERIES_6_AVR) || defined(USB_SERIES_7_AVR))
					case USB_INT_VBUSTI:
						USBCON |= (1 << VBUSTE);
     926:	88 83       	st	Y, r24
     928:	80 e0       	ldi	r24, 0x00	; 0
     92a:	60 e0       	ldi	r22, 0x00	; 0
				uint8_t Number = (Address & ENDPOINT_EPNUM_MASK);

				if (Number >= ENDPOINT_TOTAL_ENDPOINTS)
				  return false;

				return Endpoint_ConfigureEndpoint_Prv(Number,
     92c:	42 e0       	ldi	r20, 0x02	; 2
     92e:	18 df       	rcall	.-464    	; 0x760 <Endpoint_ConfigureEndpoint_Prv>
     930:	e1 ee       	ldi	r30, 0xE1	; 225
     932:	f0 e0       	ldi	r31, 0x00	; 0
     934:	80 81       	ld	r24, Z
					#if defined(USB_CAN_BE_DEVICE)
					case USB_INT_WAKEUPI:
						UDINT  &= ~(1 << WAKEUPI);
						break;
					case USB_INT_SUSPI:
						UDINT  &= ~(1 << SUSPI);
     936:	8e 7f       	andi	r24, 0xFE	; 254
     938:	80 83       	st	Z, r24
     93a:	e2 ee       	ldi	r30, 0xE2	; 226
     93c:	f0 e0       	ldi	r31, 0x00	; 0
     93e:	80 81       	ld	r24, Z
					#if defined(USB_CAN_BE_DEVICE)
					case USB_INT_WAKEUPI:
						UDIEN  |= (1 << WAKEUPE);
						break;
					case USB_INT_SUSPI:
						UDIEN  |= (1 << SUSPE);
     940:	81 60       	ori	r24, 0x01	; 1
     942:	80 83       	st	Z, r24
     944:	80 81       	ld	r24, Z
     946:	88 60       	ori	r24, 0x08	; 8
     948:	80 83       	st	Z, r24
						break;
					case USB_INT_EORSTI:
						UDIEN  |= (1 << EORSTE);
     94a:	f8 01       	movw	r30, r16
     94c:	80 81       	ld	r24, Z
     94e:	8e 7f       	andi	r24, 0xFE	; 254
			 *  register and despite the datasheet making no mention of its requirement in host mode.
			 */
			static inline void USB_Attach(void) ATTR_ALWAYS_INLINE;
			static inline void USB_Attach(void)
			{
				UDCON  &= ~(1 << DETACH);
     950:	80 83       	st	Z, r24
     952:	88 81       	ld	r24, Y
     954:	80 61       	ori	r24, 0x10	; 16
     956:	88 83       	st	Y, r24

			#if defined(USB_SERIES_4_AVR) || defined(USB_SERIES_6_AVR) || defined(USB_SERIES_7_AVR)
			static inline void USB_OTGPAD_On(void) ATTR_ALWAYS_INLINE;
			static inline void USB_OTGPAD_On(void)
			{
				USBCON |=  (1 << OTGPADE);
     958:	df 91       	pop	r29
     95a:	cf 91       	pop	r28
     95c:	1f 91       	pop	r17
	}

	#if (defined(USB_SERIES_4_AVR) || defined(USB_SERIES_6_AVR) || defined(USB_SERIES_7_AVR))
	USB_OTGPAD_On();
	#endif
}
     95e:	0f 91       	pop	r16
     960:	08 95       	ret

00000962 <USB_Init>:
     962:	e8 ed       	ldi	r30, 0xD8	; 216
     964:	f0 e0       	ldi	r31, 0x00	; 0
     966:	80 81       	ld	r24, Z
			}

			static inline void USB_OTGPAD_Off(void) ATTR_ALWAYS_INLINE;
			static inline void USB_OTGPAD_Off(void)
			{
				USBCON &= ~(1 << OTGPADE);
     968:	8f 7e       	andi	r24, 0xEF	; 239
     96a:	80 83       	st	Z, r24

			static inline void USB_REG_On(void) ATTR_ALWAYS_INLINE;
			static inline void USB_REG_On(void)
			{
			#if defined(USB_SERIES_4_AVR) || defined(USB_SERIES_6_AVR) || defined(USB_SERIES_7_AVR)
				UHWCON |=  (1 << UVREGE);
     96c:	e7 ed       	ldi	r30, 0xD7	; 215
     96e:	f0 e0       	ldi	r31, 0x00	; 0
     970:	80 81       	ld	r24, Z
     972:	81 60       	ori	r24, 0x01	; 1
     974:	80 83       	st	Z, r24
	  USB_REG_Off();

	if (!(USB_Options & USB_OPT_MANUAL_PLL))
	{
		#if defined(USB_SERIES_4_AVR)
		PLLFRQ = (1 << PDIV2);
     976:	84 e0       	ldi	r24, 0x04	; 4
     978:	82 bf       	out	0x32, r24	; 50
		UHWCON &= ~(1 << UIDE);
		USB_CurrentMode = Mode;
	}
	#endif

	USB_IsInitialized = true;
     97a:	81 e0       	ldi	r24, 0x01	; 1
     97c:	80 93 c4 02 	sts	0x02C4, r24

	USB_ResetInterface();
     980:	b1 cf       	rjmp	.-158    	; 0x8e4 <USB_ResetInterface>

00000982 <USB_INT_DisableAllInterrupts>:
void USB_INT_DisableAllInterrupts(void)
{
	#if defined(USB_SERIES_6_AVR) || defined(USB_SERIES_7_AVR)
	USBCON &= ~((1 << VBUSTE) | (1 << IDTE));
	#elif defined(USB_SERIES_4_AVR)
	USBCON &= ~(1 << VBUSTE);
     982:	e8 ed       	ldi	r30, 0xD8	; 216
     984:	f0 e0       	ldi	r31, 0x00	; 0
     986:	80 81       	ld	r24, Z
     988:	8e 7f       	andi	r24, 0xFE	; 254
     98a:	80 83       	st	Z, r24
	#if defined(USB_CAN_BE_HOST)
	UHIEN   = 0;
	#endif

	#if defined(USB_CAN_BE_DEVICE)
	UDIEN   = 0;
     98c:	10 92 e2 00 	sts	0x00E2, r1
	#endif
}
     990:	08 95       	ret

00000992 <USB_INT_ClearAllInterrupts>:

void USB_INT_ClearAllInterrupts(void)
{
	#if defined(USB_SERIES_4_AVR) || defined(USB_SERIES_6_AVR) || defined(USB_SERIES_7_AVR)
	USBINT = 0;
     992:	10 92 da 00 	sts	0x00DA, r1
	#if defined(USB_CAN_BE_HOST)
	UHINT  = 0;
	#endif

	#if defined(USB_CAN_BE_DEVICE)
	UDINT  = 0;
     996:	10 92 e1 00 	sts	0x00E1, r1
	#endif
}
     99a:	08 95       	ret

0000099c <__vector_10>:

ISR(USB_GEN_vect, ISR_BLOCK)
{
     99c:	1f 92       	push	r1
     99e:	0f 92       	push	r0
     9a0:	0f b6       	in	r0, 0x3f	; 63
     9a2:	0f 92       	push	r0
     9a4:	11 24       	eor	r1, r1
     9a6:	2f 93       	push	r18
     9a8:	3f 93       	push	r19
     9aa:	4f 93       	push	r20
     9ac:	5f 93       	push	r21
     9ae:	6f 93       	push	r22
     9b0:	7f 93       	push	r23
     9b2:	8f 93       	push	r24
     9b4:	9f 93       	push	r25
     9b6:	af 93       	push	r26
     9b8:	bf 93       	push	r27
     9ba:	ef 93       	push	r30
     9bc:	ff 93       	push	r31
					case USB_INT_SUSPI:
						return (UDINT  & (1 << SUSPI));
					case USB_INT_EORSTI:
						return (UDINT  & (1 << EORSTI));
					case USB_INT_SOFI:
						return (UDINT  & (1 << SOFI));
     9be:	80 91 e1 00 	lds	r24, 0x00E1
	#if defined(USB_CAN_BE_DEVICE)
	#if !defined(NO_SOF_EVENTS)
	if (USB_INT_HasOccurred(USB_INT_SOFI) && USB_INT_IsEnabled(USB_INT_SOFI))
     9c2:	82 ff       	sbrs	r24, 2
     9c4:	0a c0       	rjmp	.+20     	; 0x9da <__vector_10+0x3e>
					case USB_INT_SUSPI:
						return (UDIEN  & (1 << SUSPE));
					case USB_INT_EORSTI:
						return (UDIEN  & (1 << EORSTE));
					case USB_INT_SOFI:
						return (UDIEN  & (1 << SOFE));
     9c6:	80 91 e2 00 	lds	r24, 0x00E2
     9ca:	82 ff       	sbrs	r24, 2
     9cc:	06 c0       	rjmp	.+12     	; 0x9da <__vector_10+0x3e>
						break;
					case USB_INT_EORSTI:
						UDINT  &= ~(1 << EORSTI);
						break;
					case USB_INT_SOFI:
						UDINT  &= ~(1 << SOFI);
     9ce:	80 91 e1 00 	lds	r24, 0x00E1
     9d2:	8b 7f       	andi	r24, 0xFB	; 251
     9d4:	80 93 e1 00 	sts	0x00E1, r24
	{
		USB_INT_Clear(USB_INT_SOFI);

		EVENT_USB_Device_StartOfFrame();
     9d8:	44 d2       	rcall	.+1160   	; 0xe62 <USB_Event_Stub>
     9da:	80 91 da 00 	lds	r24, 0x00DA
			{
				switch (Interrupt)
				{
					#if (defined(USB_SERIES_4_AVR) || defined(USB_SERIES_6_AVR) || defined(USB_SERIES_7_AVR))
					case USB_INT_VBUSTI:
						return (USBINT & (1 << VBUSTI));
     9de:	80 ff       	sbrs	r24, 0
	}
	#endif

	#if defined(USB_SERIES_4_AVR) || defined(USB_SERIES_6_AVR) || defined(USB_SERIES_7_AVR)
	if (USB_INT_HasOccurred(USB_INT_VBUSTI) && USB_INT_IsEnabled(USB_INT_VBUSTI))
     9e0:	1b c0       	rjmp	.+54     	; 0xa18 <__vector_10+0x7c>
     9e2:	80 91 d8 00 	lds	r24, 0x00D8
			{
				switch (Interrupt)
				{
					#if (defined(USB_SERIES_4_AVR) || defined(USB_SERIES_6_AVR) || defined(USB_SERIES_7_AVR))
					case USB_INT_VBUSTI:
						return (USBCON & (1 << VBUSTE));
     9e6:	80 ff       	sbrs	r24, 0
     9e8:	17 c0       	rjmp	.+46     	; 0xa18 <__vector_10+0x7c>
     9ea:	80 91 da 00 	lds	r24, 0x00DA
			{
				switch (Interrupt)
				{
					#if (defined(USB_SERIES_4_AVR) || defined(USB_SERIES_6_AVR) || defined(USB_SERIES_7_AVR))
					case USB_INT_VBUSTI:
						USBINT &= ~(1 << VBUSTI);
     9ee:	8e 7f       	andi	r24, 0xFE	; 254
     9f0:	80 93 da 00 	sts	0x00DA, r24
     9f4:	80 91 d9 00 	lds	r24, 0x00D9
				 *  \return Boolean \c true if the VBUS line is currently detecting power from a host, \c false otherwise.
				 */
				static inline bool USB_VBUS_GetStatus(void) ATTR_WARN_UNUSED_RESULT ATTR_ALWAYS_INLINE;
				static inline bool USB_VBUS_GetStatus(void)
				{
					return ((USBSTA & (1 << VBUS)) ? true : false);
     9f8:	80 ff       	sbrs	r24, 0
	{
		USB_INT_Clear(USB_INT_VBUSTI);

		if (USB_VBUS_GetStatus())
     9fa:	0b c0       	rjmp	.+22     	; 0xa12 <__vector_10+0x76>
     9fc:	80 e1       	ldi	r24, 0x10	; 16

		/* Inline Functions: */
			static inline void USB_PLL_On(void) ATTR_ALWAYS_INLINE;
			static inline void USB_PLL_On(void)
			{
				PLLCSR = USB_PLL_PSC;
     9fe:	89 bd       	out	0x29, r24	; 41
     a00:	82 e1       	ldi	r24, 0x12	; 18
				PLLCSR = (USB_PLL_PSC | (1 << PLLE));
     a02:	89 bd       	out	0x29, r24	; 41
     a04:	09 b4       	in	r0, 0x29	; 41
		{
			if (!(USB_Options & USB_OPT_MANUAL_PLL))
			{
				USB_PLL_On();
				while (!(USB_PLL_IsReady()));
     a06:	00 fe       	sbrs	r0, 0
     a08:	fd cf       	rjmp	.-6      	; 0xa04 <__vector_10+0x68>
     a0a:	81 e0       	ldi	r24, 0x01	; 1
			}

			USB_DeviceState = DEVICE_STATE_Powered;
     a0c:	8e bb       	out	0x1e, r24	; 30
     a0e:	c4 dc       	rcall	.-1656   	; 0x398 <EVENT_USB_Device_Connect>
			EVENT_USB_Device_Connect();
     a10:	03 c0       	rjmp	.+6      	; 0xa18 <__vector_10+0x7c>
     a12:	19 bc       	out	0x29, r1	; 41
     a14:	1e ba       	out	0x1e, r1	; 30
			}

			static inline void USB_PLL_Off(void) ATTR_ALWAYS_INLINE;
			static inline void USB_PLL_Off(void)
			{
				PLLCSR = 0;
     a16:	c2 dc       	rcall	.-1660   	; 0x39c <EVENT_USB_Device_Disconnect>
		else
		{
			if (!(USB_Options & USB_OPT_MANUAL_PLL))
			  USB_PLL_Off();

			USB_DeviceState = DEVICE_STATE_Unattached;
     a18:	80 91 e1 00 	lds	r24, 0x00E1
			EVENT_USB_Device_Disconnect();
     a1c:	80 ff       	sbrs	r24, 0
					#endif
					#if defined(USB_CAN_BE_DEVICE)
					case USB_INT_WAKEUPI:
						return (UDINT  & (1 << WAKEUPI));
					case USB_INT_SUSPI:
						return (UDINT  & (1 << SUSPI));
     a1e:	17 c0       	rjmp	.+46     	; 0xa4e <__vector_10+0xb2>
     a20:	80 91 e2 00 	lds	r24, 0x00E2
		}
	}
	#endif

	if (USB_INT_HasOccurred(USB_INT_SUSPI) && USB_INT_IsEnabled(USB_INT_SUSPI))
     a24:	80 ff       	sbrs	r24, 0
					#endif
					#if defined(USB_CAN_BE_DEVICE)
					case USB_INT_WAKEUPI:
						return (UDIEN  & (1 << WAKEUPE));
					case USB_INT_SUSPI:
						return (UDIEN  & (1 << SUSPE));
     a26:	13 c0       	rjmp	.+38     	; 0xa4e <__vector_10+0xb2>
     a28:	80 91 e2 00 	lds	r24, 0x00E2
     a2c:	8e 7f       	andi	r24, 0xFE	; 254
					#if defined(USB_CAN_BE_DEVICE)
					case USB_INT_WAKEUPI:
						UDIEN  &= ~(1 << WAKEUPE);
						break;
					case USB_INT_SUSPI:
						UDIEN  &= ~(1 << SUSPE);
     a2e:	80 93 e2 00 	sts	0x00E2, r24
     a32:	80 91 e2 00 	lds	r24, 0x00E2
     a36:	80 61       	ori	r24, 0x10	; 16
						USBCON |= (1 << IDTE);
						break;
					#endif
					#if defined(USB_CAN_BE_DEVICE)
					case USB_INT_WAKEUPI:
						UDIEN  |= (1 << WAKEUPE);
     a38:	80 93 e2 00 	sts	0x00E2, r24
     a3c:	80 91 d8 00 	lds	r24, 0x00D8
     a40:	80 62       	ori	r24, 0x20	; 32
			#endif

			static inline void USB_CLK_Freeze(void) ATTR_ALWAYS_INLINE;
			static inline void USB_CLK_Freeze(void)
			{
				USBCON |=  (1 << FRZCLK);
     a42:	80 93 d8 00 	sts	0x00D8, r24
     a46:	19 bc       	out	0x29, r1	; 41
     a48:	85 e0       	ldi	r24, 0x05	; 5
     a4a:	8e bb       	out	0x1e, r24	; 30
			}

			static inline void USB_PLL_Off(void) ATTR_ALWAYS_INLINE;
			static inline void USB_PLL_Off(void)
			{
				PLLCSR = 0;
     a4c:	0a d2       	rcall	.+1044   	; 0xe62 <USB_Event_Stub>

		#if defined(USB_SERIES_2_AVR) && !defined(NO_LIMITED_CONTROLLER_CONNECT)
		USB_DeviceState = DEVICE_STATE_Unattached;
		EVENT_USB_Device_Disconnect();
		#else
		USB_DeviceState = DEVICE_STATE_Suspended;
     a4e:	80 91 e1 00 	lds	r24, 0x00E1
		EVENT_USB_Device_Suspend();
     a52:	84 ff       	sbrs	r24, 4
     a54:	2c c0       	rjmp	.+88     	; 0xaae <__vector_10+0x112>
					case USB_INT_IDTI:
						return (USBINT & (1 << IDTI));
					#endif
					#if defined(USB_CAN_BE_DEVICE)
					case USB_INT_WAKEUPI:
						return (UDINT  & (1 << WAKEUPI));
     a56:	80 91 e2 00 	lds	r24, 0x00E2
		#endif
	}

	if (USB_INT_HasOccurred(USB_INT_WAKEUPI) && USB_INT_IsEnabled(USB_INT_WAKEUPI))
     a5a:	84 ff       	sbrs	r24, 4
     a5c:	28 c0       	rjmp	.+80     	; 0xaae <__vector_10+0x112>
					case USB_INT_IDTI:
						return (USBCON & (1 << IDTE));
					#endif
					#if defined(USB_CAN_BE_DEVICE)
					case USB_INT_WAKEUPI:
						return (UDIEN  & (1 << WAKEUPE));
     a5e:	80 e1       	ldi	r24, 0x10	; 16
     a60:	89 bd       	out	0x29, r24	; 41
     a62:	82 e1       	ldi	r24, 0x12	; 18
     a64:	89 bd       	out	0x29, r24	; 41

		/* Inline Functions: */
			static inline void USB_PLL_On(void) ATTR_ALWAYS_INLINE;
			static inline void USB_PLL_On(void)
			{
				PLLCSR = USB_PLL_PSC;
     a66:	09 b4       	in	r0, 0x29	; 41
     a68:	00 fe       	sbrs	r0, 0
				PLLCSR = (USB_PLL_PSC | (1 << PLLE));
     a6a:	fd cf       	rjmp	.-6      	; 0xa66 <__vector_10+0xca>
     a6c:	80 91 d8 00 	lds	r24, 0x00D8
	{
		if (!(USB_Options & USB_OPT_MANUAL_PLL))
		{
			USB_PLL_On();
			while (!(USB_PLL_IsReady()));
     a70:	8f 7d       	andi	r24, 0xDF	; 223
     a72:	80 93 d8 00 	sts	0x00D8, r24
			}

			static inline void USB_CLK_Unfreeze(void) ATTR_ALWAYS_INLINE;
			static inline void USB_CLK_Unfreeze(void)
			{
				USBCON &= ~(1 << FRZCLK);
     a76:	80 91 e1 00 	lds	r24, 0x00E1
     a7a:	8f 7e       	andi	r24, 0xEF	; 239
     a7c:	80 93 e1 00 	sts	0x00E1, r24
						USBINT &= ~(1 << IDTI);
						break;
					#endif
					#if defined(USB_CAN_BE_DEVICE)
					case USB_INT_WAKEUPI:
						UDINT  &= ~(1 << WAKEUPI);
     a80:	80 91 e2 00 	lds	r24, 0x00E2
     a84:	8f 7e       	andi	r24, 0xEF	; 239
     a86:	80 93 e2 00 	sts	0x00E2, r24
						USBCON &= ~(1 << IDTE);
						break;
					#endif
					#if defined(USB_CAN_BE_DEVICE)
					case USB_INT_WAKEUPI:
						UDIEN  &= ~(1 << WAKEUPE);
     a8a:	80 91 e2 00 	lds	r24, 0x00E2
     a8e:	81 60       	ori	r24, 0x01	; 1
     a90:	80 93 e2 00 	sts	0x00E2, r24
					#if defined(USB_CAN_BE_DEVICE)
					case USB_INT_WAKEUPI:
						UDIEN  |= (1 << WAKEUPE);
						break;
					case USB_INT_SUSPI:
						UDIEN  |= (1 << SUSPE);
     a94:	80 91 c1 02 	lds	r24, 0x02C1
     a98:	88 23       	and	r24, r24
     a9a:	21 f4       	brne	.+8      	; 0xaa4 <__vector_10+0x108>
		USB_INT_Clear(USB_INT_WAKEUPI);

		USB_INT_Disable(USB_INT_WAKEUPI);
		USB_INT_Enable(USB_INT_SUSPI);

		if (USB_Device_ConfigurationNumber)
     a9c:	80 91 e3 00 	lds	r24, 0x00E3
     aa0:	87 ff       	sbrs	r24, 7
     aa2:	02 c0       	rjmp	.+4      	; 0xaa8 <__vector_10+0x10c>
			}

			static inline bool USB_Device_IsAddressSet(void) ATTR_ALWAYS_INLINE ATTR_WARN_UNUSED_RESULT;
			static inline bool USB_Device_IsAddressSet(void)
			{
				return (UDADDR & (1 << ADDEN));
     aa4:	84 e0       	ldi	r24, 0x04	; 4
     aa6:	01 c0       	rjmp	.+2      	; 0xaaa <__vector_10+0x10e>
		  USB_DeviceState = DEVICE_STATE_Configured;
		else
		  USB_DeviceState = (USB_Device_IsAddressSet()) ? DEVICE_STATE_Configured : DEVICE_STATE_Powered;
     aa8:	81 e0       	ldi	r24, 0x01	; 1
     aaa:	8e bb       	out	0x1e, r24	; 30
     aac:	da d1       	rcall	.+948    	; 0xe62 <USB_Event_Stub>
     aae:	80 91 e1 00 	lds	r24, 0x00E1
     ab2:	83 ff       	sbrs	r24, 3

		#if defined(USB_SERIES_2_AVR) && !defined(NO_LIMITED_CONTROLLER_CONNECT)
		EVENT_USB_Device_Connect();
		#else
		EVENT_USB_Device_WakeUp();
     ab4:	26 c0       	rjmp	.+76     	; 0xb02 <__stack+0x3>
     ab6:	80 91 e2 00 	lds	r24, 0x00E2
					case USB_INT_WAKEUPI:
						return (UDINT  & (1 << WAKEUPI));
					case USB_INT_SUSPI:
						return (UDINT  & (1 << SUSPI));
					case USB_INT_EORSTI:
						return (UDINT  & (1 << EORSTI));
     aba:	83 ff       	sbrs	r24, 3
		#endif
	}

	if (USB_INT_HasOccurred(USB_INT_EORSTI) && USB_INT_IsEnabled(USB_INT_EORSTI))
     abc:	22 c0       	rjmp	.+68     	; 0xb02 <__stack+0x3>
     abe:	80 91 e1 00 	lds	r24, 0x00E1
					case USB_INT_WAKEUPI:
						return (UDIEN  & (1 << WAKEUPE));
					case USB_INT_SUSPI:
						return (UDIEN  & (1 << SUSPE));
					case USB_INT_EORSTI:
						return (UDIEN  & (1 << EORSTE));
     ac2:	87 7f       	andi	r24, 0xF7	; 247
     ac4:	80 93 e1 00 	sts	0x00E1, r24
						break;
					case USB_INT_SUSPI:
						UDINT  &= ~(1 << SUSPI);
						break;
					case USB_INT_EORSTI:
						UDINT  &= ~(1 << EORSTI);
     ac8:	82 e0       	ldi	r24, 0x02	; 2
     aca:	8e bb       	out	0x1e, r24	; 30
     acc:	10 92 c1 02 	sts	0x02C1, r1
     ad0:	80 91 e1 00 	lds	r24, 0x00E1
	{
		USB_INT_Clear(USB_INT_EORSTI);

		USB_DeviceState                = DEVICE_STATE_Default;
     ad4:	8e 7f       	andi	r24, 0xFE	; 254
		USB_Device_ConfigurationNumber = 0;
     ad6:	80 93 e1 00 	sts	0x00E1, r24
					#if defined(USB_CAN_BE_DEVICE)
					case USB_INT_WAKEUPI:
						UDINT  &= ~(1 << WAKEUPI);
						break;
					case USB_INT_SUSPI:
						UDINT  &= ~(1 << SUSPI);
     ada:	80 91 e2 00 	lds	r24, 0x00E2
     ade:	8e 7f       	andi	r24, 0xFE	; 254
     ae0:	80 93 e2 00 	sts	0x00E2, r24
					#if defined(USB_CAN_BE_DEVICE)
					case USB_INT_WAKEUPI:
						UDIEN  &= ~(1 << WAKEUPE);
						break;
					case USB_INT_SUSPI:
						UDIEN  &= ~(1 << SUSPE);
     ae4:	80 91 e2 00 	lds	r24, 0x00E2
     ae8:	80 61       	ori	r24, 0x10	; 16
     aea:	80 93 e2 00 	sts	0x00E2, r24
						USBCON |= (1 << IDTE);
						break;
					#endif
					#if defined(USB_CAN_BE_DEVICE)
					case USB_INT_WAKEUPI:
						UDIEN  |= (1 << WAKEUPE);
     aee:	80 e0       	ldi	r24, 0x00	; 0
     af0:	60 e0       	ldi	r22, 0x00	; 0
     af2:	42 e0       	ldi	r20, 0x02	; 2
     af4:	35 de       	rcall	.-918    	; 0x760 <Endpoint_ConfigureEndpoint_Prv>
     af6:	80 91 f0 00 	lds	r24, 0x00F0
				uint8_t Number = (Address & ENDPOINT_EPNUM_MASK);

				if (Number >= ENDPOINT_TOTAL_ENDPOINTS)
				  return false;

				return Endpoint_ConfigureEndpoint_Prv(Number,
     afa:	88 60       	ori	r24, 0x08	; 8
     afc:	80 93 f0 00 	sts	0x00F0, r24
     b00:	b0 d1       	rcall	.+864    	; 0xe62 <USB_Event_Stub>
						break;
					case USB_INT_SOFI:
						UDIEN  |= (1 << SOFE);
						break;
					case USB_INT_RXSTPI:
						UEIENX |= (1 << RXSTPE);
     b02:	ff 91       	pop	r31
     b04:	ef 91       	pop	r30
     b06:	bf 91       	pop	r27
     b08:	af 91       	pop	r26
     b0a:	9f 91       	pop	r25

		#if defined(INTERRUPT_CONTROL_ENDPOINT)
		USB_INT_Enable(USB_INT_RXSTPI);
		#endif

		EVENT_USB_Device_Reset();
     b0c:	8f 91       	pop	r24
     b0e:	7f 91       	pop	r23
		USB_ResetInterface();

		EVENT_USB_UIDChange();
	}
	#endif
}
     b10:	6f 91       	pop	r22
     b12:	5f 91       	pop	r21
     b14:	4f 91       	pop	r20
     b16:	3f 91       	pop	r19
     b18:	2f 91       	pop	r18
     b1a:	0f 90       	pop	r0
     b1c:	0f be       	out	0x3f, r0	; 63
     b1e:	0f 90       	pop	r0
     b20:	1f 90       	pop	r1
     b22:	18 95       	reti

00000b24 <__vector_11>:
     b24:	1f 92       	push	r1
     b26:	0f 92       	push	r0
     b28:	0f b6       	in	r0, 0x3f	; 63
     b2a:	0f 92       	push	r0
     b2c:	11 24       	eor	r1, r1
     b2e:	2f 93       	push	r18
     b30:	3f 93       	push	r19

#if defined(INTERRUPT_CONTROL_ENDPOINT) && defined(USB_CAN_BE_DEVICE)
ISR(USB_COM_vect, ISR_BLOCK)
{
     b32:	4f 93       	push	r20
     b34:	5f 93       	push	r21
     b36:	6f 93       	push	r22
     b38:	7f 93       	push	r23
     b3a:	8f 93       	push	r24
     b3c:	9f 93       	push	r25
     b3e:	af 93       	push	r26
     b40:	bf 93       	push	r27
     b42:	cf 93       	push	r28
     b44:	ef 93       	push	r30
     b46:	ff 93       	push	r31
			 */
			static inline uint8_t Endpoint_GetCurrentEndpoint(void) ATTR_WARN_UNUSED_RESULT ATTR_ALWAYS_INLINE;
			static inline uint8_t Endpoint_GetCurrentEndpoint(void)
			{
				#if !defined(CONTROL_ONLY_DEVICE)
					return ((UENUM & ENDPOINT_EPNUM_MASK) | Endpoint_GetEndpointDirection());
     b48:	c0 91 e9 00 	lds	r28, 0x00E9
     b4c:	cf 70       	andi	r28, 0x0F	; 15
			 *  \return The currently selected endpoint's direction, as a \c ENDPOINT_DIR_* mask.
			 */
			static inline uint8_t Endpoint_GetEndpointDirection(void) ATTR_WARN_UNUSED_RESULT ATTR_ALWAYS_INLINE;
			static inline uint8_t Endpoint_GetEndpointDirection(void)
			{
				return (UECFG0X & (1 << EPDIR)) ? ENDPOINT_DIR_IN : ENDPOINT_DIR_OUT;
     b4e:	80 91 ec 00 	lds	r24, 0x00EC
			 */
			static inline void Endpoint_SelectEndpoint(const uint8_t Address) ATTR_ALWAYS_INLINE;
			static inline void Endpoint_SelectEndpoint(const uint8_t Address)
			{
				#if !defined(CONTROL_ONLY_DEVICE)
					UENUM = (Address & ENDPOINT_EPNUM_MASK);
     b52:	10 92 e9 00 	sts	0x00E9, r1
						break;
					case USB_INT_SOFI:
						UDIEN  &= ~(1 << SOFE);
						break;
					case USB_INT_RXSTPI:
						UEIENX &= ~(1 << RXSTPE);
     b56:	80 91 f0 00 	lds	r24, 0x00F0
     b5a:	87 7f       	andi	r24, 0xF7	; 247
     b5c:	80 93 f0 00 	sts	0x00F0, r24
			static inline void GlobalInterruptEnable(void)
			{
				GCC_MEMORY_BARRIER();

				#if (ARCH == ARCH_AVR8)
				sei();
     b60:	78 94       	sei
	Endpoint_SelectEndpoint(ENDPOINT_CONTROLEP);
	USB_INT_Disable(USB_INT_RXSTPI);

	GlobalInterruptEnable();

	USB_Device_ProcessControlRequest();
     b62:	1b d0       	rcall	.+54     	; 0xb9a <USB_Device_ProcessControlRequest>
     b64:	10 92 e9 00 	sts	0x00E9, r1
     b68:	80 91 f0 00 	lds	r24, 0x00F0
						break;
					case USB_INT_SOFI:
						UDIEN  |= (1 << SOFE);
						break;
					case USB_INT_RXSTPI:
						UEIENX |= (1 << RXSTPE);
     b6c:	88 60       	ori	r24, 0x08	; 8
     b6e:	80 93 f0 00 	sts	0x00F0, r24
     b72:	c0 93 e9 00 	sts	0x00E9, r28
     b76:	ff 91       	pop	r31

	Endpoint_SelectEndpoint(ENDPOINT_CONTROLEP);
	USB_INT_Enable(USB_INT_RXSTPI);
	Endpoint_SelectEndpoint(PrevSelectedEndpoint);
}
     b78:	ef 91       	pop	r30
     b7a:	cf 91       	pop	r28
     b7c:	bf 91       	pop	r27
     b7e:	af 91       	pop	r26
     b80:	9f 91       	pop	r25
     b82:	8f 91       	pop	r24
     b84:	7f 91       	pop	r23
     b86:	6f 91       	pop	r22
     b88:	5f 91       	pop	r21
     b8a:	4f 91       	pop	r20
     b8c:	3f 91       	pop	r19
     b8e:	2f 91       	pop	r18
     b90:	0f 90       	pop	r0
     b92:	0f be       	out	0x3f, r0	; 63
     b94:	0f 90       	pop	r0
     b96:	1f 90       	pop	r1
     b98:	18 95       	reti

00000b9a <USB_Device_ProcessControlRequest>:
#if !defined(NO_DEVICE_REMOTE_WAKEUP)
bool    USB_Device_RemoteWakeupEnabled;
#endif

void USB_Device_ProcessControlRequest(void)
{
     b9a:	1f 93       	push	r17
     b9c:	cf 93       	push	r28
     b9e:	df 93       	push	r29
     ba0:	cd b7       	in	r28, 0x3d	; 61
     ba2:	de b7       	in	r29, 0x3e	; 62
     ba4:	ac 97       	sbiw	r28, 0x2c	; 44
     ba6:	0f b6       	in	r0, 0x3f	; 63
     ba8:	f8 94       	cli
     baa:	de bf       	out	0x3e, r29	; 62
     bac:	0f be       	out	0x3f, r0	; 63
     bae:	cd bf       	out	0x3d, r28	; 61
	USB_ControlRequest.wIndex        = Endpoint_Read_16_LE();
	USB_ControlRequest.wLength       = Endpoint_Read_16_LE();
	#else
	uint8_t* RequestHeader = (uint8_t*)&USB_ControlRequest;

	for (uint8_t RequestHeaderByte = 0; RequestHeaderByte < sizeof(USB_Request_Header_t); RequestHeaderByte++)
     bb0:	80 e0       	ldi	r24, 0x00	; 0
	USB_ControlRequest.bRequest      = Endpoint_Read_8();
	USB_ControlRequest.wValue        = Endpoint_Read_16_LE();
	USB_ControlRequest.wIndex        = Endpoint_Read_16_LE();
	USB_ControlRequest.wLength       = Endpoint_Read_16_LE();
	#else
	uint8_t* RequestHeader = (uint8_t*)&USB_ControlRequest;
     bb2:	e5 ec       	ldi	r30, 0xC5	; 197
     bb4:	f2 e0       	ldi	r31, 0x02	; 2
			 *  \return Next byte in the currently selected endpoint's FIFO buffer.
			 */
			static inline uint8_t Endpoint_Read_8(void) ATTR_WARN_UNUSED_RESULT ATTR_ALWAYS_INLINE;
			static inline uint8_t Endpoint_Read_8(void)
			{
				return UEDATX;
     bb6:	90 91 f1 00 	lds	r25, 0x00F1

	for (uint8_t RequestHeaderByte = 0; RequestHeaderByte < sizeof(USB_Request_Header_t); RequestHeaderByte++)
	  *(RequestHeader++) = Endpoint_Read_8();
     bba:	91 93       	st	Z+, r25
	USB_ControlRequest.wIndex        = Endpoint_Read_16_LE();
	USB_ControlRequest.wLength       = Endpoint_Read_16_LE();
	#else
	uint8_t* RequestHeader = (uint8_t*)&USB_ControlRequest;

	for (uint8_t RequestHeaderByte = 0; RequestHeaderByte < sizeof(USB_Request_Header_t); RequestHeaderByte++)
     bbc:	8f 5f       	subi	r24, 0xFF	; 255
     bbe:	88 30       	cpi	r24, 0x08	; 8
     bc0:	d1 f7       	brne	.-12     	; 0xbb6 <USB_Device_ProcessControlRequest+0x1c>
	  *(RequestHeader++) = Endpoint_Read_8();
	#endif

	EVENT_USB_Device_ControlRequest();
     bc2:	f7 db       	rcall	.-2066   	; 0x3b2 <EVENT_USB_Device_ControlRequest>
     bc4:	80 91 e8 00 	lds	r24, 0x00E8
			 *  \return Boolean \c true if the selected endpoint has received a SETUP packet, \c false otherwise.
			 */
			static inline bool Endpoint_IsSETUPReceived(void) ATTR_WARN_UNUSED_RESULT ATTR_ALWAYS_INLINE;
			static inline bool Endpoint_IsSETUPReceived(void)
			{
				return ((UEINTX & (1 << RXSTPI)) ? true : false);
     bc8:	83 ff       	sbrs	r24, 3

	if (Endpoint_IsSETUPReceived())
     bca:	33 c1       	rjmp	.+614    	; 0xe32 <USB_Device_ProcessControlRequest+0x298>
     bcc:	80 91 c5 02 	lds	r24, 0x02C5
	{
		uint8_t bmRequestType = USB_ControlRequest.bmRequestType;
     bd0:	20 91 c6 02 	lds	r18, 0x02C6

		switch (USB_ControlRequest.bRequest)
     bd4:	25 30       	cpi	r18, 0x05	; 5
     bd6:	09 f4       	brne	.+2      	; 0xbda <USB_Device_ProcessControlRequest+0x40>
     bd8:	84 c0       	rjmp	.+264    	; 0xce2 <USB_Device_ProcessControlRequest+0x148>
     bda:	26 30       	cpi	r18, 0x06	; 6
     bdc:	40 f4       	brcc	.+16     	; 0xbee <USB_Device_ProcessControlRequest+0x54>
     bde:	21 30       	cpi	r18, 0x01	; 1
     be0:	a1 f1       	breq	.+104    	; 0xc4a <USB_Device_ProcessControlRequest+0xb0>
     be2:	21 30       	cpi	r18, 0x01	; 1
     be4:	70 f0       	brcs	.+28     	; 0xc02 <USB_Device_ProcessControlRequest+0x68>
     be6:	23 30       	cpi	r18, 0x03	; 3
     be8:	09 f0       	breq	.+2      	; 0xbec <USB_Device_ProcessControlRequest+0x52>
     bea:	23 c1       	rjmp	.+582    	; 0xe32 <USB_Device_ProcessControlRequest+0x298>
     bec:	2e c0       	rjmp	.+92     	; 0xc4a <USB_Device_ProcessControlRequest+0xb0>
     bee:	28 30       	cpi	r18, 0x08	; 8
     bf0:	09 f4       	brne	.+2      	; 0xbf4 <USB_Device_ProcessControlRequest+0x5a>
     bf2:	f2 c0       	rjmp	.+484    	; 0xdd8 <USB_Device_ProcessControlRequest+0x23e>
     bf4:	29 30       	cpi	r18, 0x09	; 9
     bf6:	09 f4       	brne	.+2      	; 0xbfa <USB_Device_ProcessControlRequest+0x60>
     bf8:	01 c1       	rjmp	.+514    	; 0xdfc <USB_Device_ProcessControlRequest+0x262>
     bfa:	26 30       	cpi	r18, 0x06	; 6
     bfc:	09 f0       	breq	.+2      	; 0xc00 <USB_Device_ProcessControlRequest+0x66>
     bfe:	19 c1       	rjmp	.+562    	; 0xe32 <USB_Device_ProcessControlRequest+0x298>
     c00:	92 c0       	rjmp	.+292    	; 0xd26 <USB_Device_ProcessControlRequest+0x18c>
     c02:	80 38       	cpi	r24, 0x80	; 128
		{
			case REQ_GetStatus:
				if ((bmRequestType == (REQDIR_DEVICETOHOST | REQTYPE_STANDARD | REQREC_DEVICE)) ||
     c04:	21 f0       	breq	.+8      	; 0xc0e <USB_Device_ProcessControlRequest+0x74>
     c06:	82 38       	cpi	r24, 0x82	; 130
     c08:	09 f0       	breq	.+2      	; 0xc0c <USB_Device_ProcessControlRequest+0x72>
     c0a:	13 c1       	rjmp	.+550    	; 0xe32 <USB_Device_ProcessControlRequest+0x298>
     c0c:	08 c0       	rjmp	.+16     	; 0xc1e <USB_Device_ProcessControlRequest+0x84>
     c0e:	80 91 c2 02 	lds	r24, 0x02C2
	Endpoint_ClearOUT();
}

static void USB_Device_GetStatus(void)
{
	uint8_t CurrentStatus = 0;
     c12:	90 91 c3 02 	lds	r25, 0x02C3
			if (USB_Device_CurrentlySelfPowered)
			  CurrentStatus |= FEATURE_SELFPOWERED_ENABLED;
			#endif

			#if !defined(NO_DEVICE_REMOTE_WAKEUP)
			if (USB_Device_RemoteWakeupEnabled)
     c16:	99 23       	and	r25, r25
     c18:	71 f0       	breq	.+28     	; 0xc36 <USB_Device_ProcessControlRequest+0x9c>
     c1a:	82 60       	ori	r24, 0x02	; 2
			  CurrentStatus |= FEATURE_REMOTE_WAKEUP_ENABLED;
     c1c:	0c c0       	rjmp	.+24     	; 0xc36 <USB_Device_ProcessControlRequest+0x9c>
     c1e:	80 91 c9 02 	lds	r24, 0x02C9
			#endif
			break;
		case (REQDIR_DEVICETOHOST | REQTYPE_STANDARD | REQREC_ENDPOINT):
			#if !defined(CONTROL_ONLY_DEVICE)
			Endpoint_SelectEndpoint((uint8_t)USB_ControlRequest.wIndex & ENDPOINT_EPNUM_MASK);
     c22:	8f 70       	andi	r24, 0x0F	; 15
     c24:	80 93 e9 00 	sts	0x00E9, r24
			 */
			static inline void Endpoint_SelectEndpoint(const uint8_t Address) ATTR_ALWAYS_INLINE;
			static inline void Endpoint_SelectEndpoint(const uint8_t Address)
			{
				#if !defined(CONTROL_ONLY_DEVICE)
					UENUM = (Address & ENDPOINT_EPNUM_MASK);
     c28:	90 91 eb 00 	lds	r25, 0x00EB
			 *  \return Boolean \c true if the currently selected endpoint is stalled, \c false otherwise.
			 */
			static inline bool Endpoint_IsStalled(void) ATTR_WARN_UNUSED_RESULT ATTR_ALWAYS_INLINE;
			static inline bool Endpoint_IsStalled(void)
			{
				return ((UECONX & (1 << STALLRQ)) ? true : false);
     c2c:	81 e0       	ldi	r24, 0x01	; 1

			CurrentStatus = Endpoint_IsStalled();
     c2e:	95 ff       	sbrs	r25, 5
     c30:	80 e0       	ldi	r24, 0x00	; 0
     c32:	10 92 e9 00 	sts	0x00E9, r1
			 */
			static inline void Endpoint_SelectEndpoint(const uint8_t Address) ATTR_ALWAYS_INLINE;
			static inline void Endpoint_SelectEndpoint(const uint8_t Address)
			{
				#if !defined(CONTROL_ONLY_DEVICE)
					UENUM = (Address & ENDPOINT_EPNUM_MASK);
     c36:	90 91 e8 00 	lds	r25, 0x00E8
			 *  \note This is not applicable for non CONTROL type endpoints.
			 */
			static inline void Endpoint_ClearSETUP(void) ATTR_ALWAYS_INLINE;
			static inline void Endpoint_ClearSETUP(void)
			{
				UEINTX &= ~(1 << RXSTPI);
     c3a:	97 7f       	andi	r25, 0xF7	; 247
     c3c:	90 93 e8 00 	sts	0x00E8, r25
     c40:	80 93 f1 00 	sts	0x00F1, r24
			 *  \param[in] Data  Data to write to the currently selected endpoint's FIFO buffer.
			 */
			static inline void Endpoint_Write_16_LE(const uint16_t Data) ATTR_ALWAYS_INLINE;
			static inline void Endpoint_Write_16_LE(const uint16_t Data)
			{
				UEDATX = (Data & 0xFF);
     c44:	10 92 f1 00 	sts	0x00F1, r1
				UEDATX = (Data >> 8);
     c48:	d2 c0       	rjmp	.+420    	; 0xdee <USB_Device_ProcessControlRequest+0x254>
     c4a:	88 23       	and	r24, r24
				}

				break;
			case REQ_ClearFeature:
			case REQ_SetFeature:
				if ((bmRequestType == (REQDIR_HOSTTODEVICE | REQTYPE_STANDARD | REQREC_DEVICE)) ||
     c4c:	19 f0       	breq	.+6      	; 0xc54 <USB_Device_ProcessControlRequest+0xba>
     c4e:	82 30       	cpi	r24, 0x02	; 2
     c50:	09 f0       	breq	.+2      	; 0xc54 <USB_Device_ProcessControlRequest+0xba>
     c52:	ef c0       	rjmp	.+478    	; 0xe32 <USB_Device_ProcessControlRequest+0x298>
     c54:	90 e0       	ldi	r25, 0x00	; 0
	Endpoint_ClearStatusStage();
}

static void USB_Device_ClearSetFeature(void)
{
	switch (USB_ControlRequest.bmRequestType & CONTROL_REQTYPE_RECIPIENT)
     c56:	8f 71       	andi	r24, 0x1F	; 31
     c58:	90 70       	andi	r25, 0x00	; 0
     c5a:	00 97       	sbiw	r24, 0x00	; 0
     c5c:	29 f0       	breq	.+10     	; 0xc68 <USB_Device_ProcessControlRequest+0xce>
     c5e:	82 30       	cpi	r24, 0x02	; 2
     c60:	91 05       	cpc	r25, r1
     c62:	09 f0       	breq	.+2      	; 0xc66 <USB_Device_ProcessControlRequest+0xcc>
     c64:	e6 c0       	rjmp	.+460    	; 0xe32 <USB_Device_ProcessControlRequest+0x298>
     c66:	0b c0       	rjmp	.+22     	; 0xc7e <USB_Device_ProcessControlRequest+0xe4>
     c68:	80 91 c7 02 	lds	r24, 0x02C7
	{
		#if !defined(NO_DEVICE_REMOTE_WAKEUP)
		case REQREC_DEVICE:
			if ((uint8_t)USB_ControlRequest.wValue == FEATURE_SEL_DeviceRemoteWakeup)
     c6c:	81 30       	cpi	r24, 0x01	; 1
     c6e:	09 f0       	breq	.+2      	; 0xc72 <USB_Device_ProcessControlRequest+0xd8>
     c70:	e0 c0       	rjmp	.+448    	; 0xe32 <USB_Device_ProcessControlRequest+0x298>
     c72:	23 30       	cpi	r18, 0x03	; 3
			  USB_Device_RemoteWakeupEnabled = (USB_ControlRequest.bRequest == REQ_SetFeature);
     c74:	09 f0       	breq	.+2      	; 0xc78 <USB_Device_ProcessControlRequest+0xde>
     c76:	80 e0       	ldi	r24, 0x00	; 0
     c78:	80 93 c3 02 	sts	0x02C3, r24
     c7c:	2c c0       	rjmp	.+88     	; 0xcd6 <USB_Device_ProcessControlRequest+0x13c>
     c7e:	80 91 c7 02 	lds	r24, 0x02C7

			break;
		#endif
		#if !defined(CONTROL_ONLY_DEVICE)
		case REQREC_ENDPOINT:
			if ((uint8_t)USB_ControlRequest.wValue == FEATURE_SEL_EndpointHalt)
     c82:	88 23       	and	r24, r24
     c84:	41 f5       	brne	.+80     	; 0xcd6 <USB_Device_ProcessControlRequest+0x13c>
     c86:	20 91 c9 02 	lds	r18, 0x02C9
			{
				uint8_t EndpointIndex = ((uint8_t)USB_ControlRequest.wIndex & ENDPOINT_EPNUM_MASK);
     c8a:	2f 70       	andi	r18, 0x0F	; 15
     c8c:	09 f4       	brne	.+2      	; 0xc90 <USB_Device_ProcessControlRequest+0xf6>

				if (EndpointIndex == ENDPOINT_CONTROLEP)
     c8e:	d1 c0       	rjmp	.+418    	; 0xe32 <USB_Device_ProcessControlRequest+0x298>
     c90:	20 93 e9 00 	sts	0x00E9, r18
			 */
			static inline void Endpoint_SelectEndpoint(const uint8_t Address) ATTR_ALWAYS_INLINE;
			static inline void Endpoint_SelectEndpoint(const uint8_t Address)
			{
				#if !defined(CONTROL_ONLY_DEVICE)
					UENUM = (Address & ENDPOINT_EPNUM_MASK);
     c94:	80 91 eb 00 	lds	r24, 0x00EB
			 * \return Boolean \c true if the currently selected endpoint is enabled, \c false otherwise.
			 */
			static inline bool Endpoint_IsEnabled(void) ATTR_WARN_UNUSED_RESULT ATTR_ALWAYS_INLINE;
			static inline bool Endpoint_IsEnabled(void)
			{
				return ((UECONX & (1 << EPEN)) ? true : false);
     c98:	80 ff       	sbrs	r24, 0
				  return;

				Endpoint_SelectEndpoint(EndpointIndex);

				if (Endpoint_IsEnabled())
     c9a:	1d c0       	rjmp	.+58     	; 0xcd6 <USB_Device_ProcessControlRequest+0x13c>
     c9c:	80 91 c6 02 	lds	r24, 0x02C6
				{
					if (USB_ControlRequest.bRequest == REQ_SetFeature)
     ca0:	83 30       	cpi	r24, 0x03	; 3
     ca2:	21 f4       	brne	.+8      	; 0xcac <USB_Device_ProcessControlRequest+0x112>
     ca4:	80 91 eb 00 	lds	r24, 0x00EB
			 *  \ingroup Group_EndpointPacketManagement_AVR8
			 */
			static inline void Endpoint_StallTransaction(void) ATTR_ALWAYS_INLINE;
			static inline void Endpoint_StallTransaction(void)
			{
				UECONX |= (1 << STALLRQ);
     ca8:	80 62       	ori	r24, 0x20	; 32
     caa:	13 c0       	rjmp	.+38     	; 0xcd2 <USB_Device_ProcessControlRequest+0x138>
     cac:	80 91 eb 00 	lds	r24, 0x00EB
			 *  \ingroup Group_EndpointPacketManagement_AVR8
			 */
			static inline void Endpoint_ClearStall(void) ATTR_ALWAYS_INLINE;
			static inline void Endpoint_ClearStall(void)
			{
				UECONX |= (1 << STALLRQC);
     cb0:	80 61       	ori	r24, 0x10	; 16
     cb2:	80 93 eb 00 	sts	0x00EB, r24
     cb6:	81 e0       	ldi	r24, 0x01	; 1
			 *  \param[in] Address  Endpoint address whose FIFO buffers are to be reset.
			 */
			static inline void Endpoint_ResetEndpoint(const uint8_t Address) ATTR_ALWAYS_INLINE;
			static inline void Endpoint_ResetEndpoint(const uint8_t Address)
			{
				UERST = (1 << (Address & ENDPOINT_EPNUM_MASK));
     cb8:	90 e0       	ldi	r25, 0x00	; 0
     cba:	02 c0       	rjmp	.+4      	; 0xcc0 <USB_Device_ProcessControlRequest+0x126>
     cbc:	88 0f       	add	r24, r24
     cbe:	99 1f       	adc	r25, r25
     cc0:	2a 95       	dec	r18
     cc2:	e2 f7       	brpl	.-8      	; 0xcbc <USB_Device_ProcessControlRequest+0x122>
     cc4:	80 93 ea 00 	sts	0x00EA, r24
     cc8:	10 92 ea 00 	sts	0x00EA, r1
				UERST = 0;
     ccc:	80 91 eb 00 	lds	r24, 0x00EB

			/** Resets the data toggle of the currently selected endpoint. */
			static inline void Endpoint_ResetDataToggle(void) ATTR_ALWAYS_INLINE;
			static inline void Endpoint_ResetDataToggle(void)
			{
				UECONX |= (1 << RSTDT);
     cd0:	88 60       	ori	r24, 0x08	; 8
     cd2:	80 93 eb 00 	sts	0x00EB, r24
     cd6:	10 92 e9 00 	sts	0x00E9, r1
			 */
			static inline void Endpoint_SelectEndpoint(const uint8_t Address) ATTR_ALWAYS_INLINE;
			static inline void Endpoint_SelectEndpoint(const uint8_t Address)
			{
				#if !defined(CONTROL_ONLY_DEVICE)
					UENUM = (Address & ENDPOINT_EPNUM_MASK);
     cda:	80 91 e8 00 	lds	r24, 0x00E8
			 *  \note This is not applicable for non CONTROL type endpoints.
			 */
			static inline void Endpoint_ClearSETUP(void) ATTR_ALWAYS_INLINE;
			static inline void Endpoint_ClearSETUP(void)
			{
				UEINTX &= ~(1 << RXSTPI);
     cde:	87 7f       	andi	r24, 0xF7	; 247
     ce0:	89 c0       	rjmp	.+274    	; 0xdf4 <USB_Device_ProcessControlRequest+0x25a>
     ce2:	88 23       	and	r24, r24
					USB_Device_ClearSetFeature();
				}

				break;
			case REQ_SetAddress:
				if (bmRequestType == (REQDIR_HOSTTODEVICE | REQTYPE_STANDARD | REQREC_DEVICE))
     ce4:	09 f0       	breq	.+2      	; 0xce8 <USB_Device_ProcessControlRequest+0x14e>
     ce6:	a5 c0       	rjmp	.+330    	; 0xe32 <USB_Device_ProcessControlRequest+0x298>
     ce8:	10 91 c7 02 	lds	r17, 0x02C7
	}
}

static void USB_Device_SetAddress(void)
{
	uint8_t DeviceAddress = (USB_ControlRequest.wValue & 0x7F);
     cec:	1f 77       	andi	r17, 0x7F	; 127
     cee:	80 91 e3 00 	lds	r24, 0x00E3
			#endif

			static inline void USB_Device_SetDeviceAddress(const uint8_t Address) ATTR_ALWAYS_INLINE;
			static inline void USB_Device_SetDeviceAddress(const uint8_t Address)
			{
				UDADDR = (UDADDR & (1 << ADDEN)) | (Address & 0x7F);
     cf2:	80 78       	andi	r24, 0x80	; 128
     cf4:	81 2b       	or	r24, r17
     cf6:	80 93 e3 00 	sts	0x00E3, r24
     cfa:	80 91 e8 00 	lds	r24, 0x00E8
     cfe:	87 7f       	andi	r24, 0xF7	; 247
     d00:	80 93 e8 00 	sts	0x00E8, r24
     d04:	9e dd       	rcall	.-1220   	; 0x842 <Endpoint_ClearStatusStage>

	USB_Device_SetDeviceAddress(DeviceAddress);

	Endpoint_ClearSETUP();

	Endpoint_ClearStatusStage();
     d06:	80 91 e8 00 	lds	r24, 0x00E8
			 *  \return Boolean \c true if the current endpoint is ready for an IN packet, \c false otherwise.
			 */
			static inline bool Endpoint_IsINReady(void) ATTR_WARN_UNUSED_RESULT ATTR_ALWAYS_INLINE;
			static inline bool Endpoint_IsINReady(void)
			{
				return ((UEINTX & (1 << TXINI)) ? true : false);
     d0a:	80 ff       	sbrs	r24, 0
     d0c:	fc cf       	rjmp	.-8      	; 0xd06 <USB_Device_ProcessControlRequest+0x16c>

	while (!(Endpoint_IsINReady()));
     d0e:	80 91 e3 00 	lds	r24, 0x00E3
			static inline void USB_Device_EnableDeviceAddress(const uint8_t Address) ATTR_ALWAYS_INLINE;
			static inline void USB_Device_EnableDeviceAddress(const uint8_t Address)
			{
				(void)Address;
				
				UDADDR |= (1 << ADDEN);
     d12:	80 68       	ori	r24, 0x80	; 128
     d14:	80 93 e3 00 	sts	0x00E3, r24
     d18:	11 23       	and	r17, r17
     d1a:	11 f0       	breq	.+4      	; 0xd20 <USB_Device_ProcessControlRequest+0x186>

	USB_Device_EnableDeviceAddress(DeviceAddress);

	USB_DeviceState = (DeviceAddress) ? DEVICE_STATE_Addressed : DEVICE_STATE_Default;
     d1c:	83 e0       	ldi	r24, 0x03	; 3
     d1e:	01 c0       	rjmp	.+2      	; 0xd22 <USB_Device_ProcessControlRequest+0x188>
     d20:	82 e0       	ldi	r24, 0x02	; 2
     d22:	8e bb       	out	0x1e, r24	; 30
     d24:	86 c0       	rjmp	.+268    	; 0xe32 <USB_Device_ProcessControlRequest+0x298>
     d26:	80 58       	subi	r24, 0x80	; 128
     d28:	82 30       	cpi	r24, 0x02	; 2
				if (bmRequestType == (REQDIR_HOSTTODEVICE | REQTYPE_STANDARD | REQREC_DEVICE))
				  USB_Device_SetAddress();

				break;
			case REQ_GetDescriptor:
				if ((bmRequestType == (REQDIR_DEVICETOHOST | REQTYPE_STANDARD | REQREC_DEVICE)) ||
     d2a:	08 f0       	brcs	.+2      	; 0xd2e <USB_Device_ProcessControlRequest+0x194>
     d2c:	82 c0       	rjmp	.+260    	; 0xe32 <USB_Device_ProcessControlRequest+0x298>
     d2e:	80 91 c7 02 	lds	r24, 0x02C7
	    !(defined(USE_FLASH_DESCRIPTORS) || defined(USE_EEPROM_DESCRIPTORS) || defined(USE_RAM_DESCRIPTORS))
	uint8_t DescriptorAddressSpace;
	#endif

	#if !defined(NO_INTERNAL_SERIAL) && (USE_INTERNAL_SERIAL != NO_DESCRIPTOR)
	if (USB_ControlRequest.wValue == ((DTYPE_String << 8) | USE_INTERNAL_SERIAL))
     d32:	90 91 c8 02 	lds	r25, 0x02C8
     d36:	23 e0       	ldi	r18, 0x03	; 3
     d38:	8c 3d       	cpi	r24, 0xDC	; 220
     d3a:	92 07       	cpc	r25, r18
     d3c:	a9 f5       	brne	.+106    	; 0xda8 <USB_Device_ProcessControlRequest+0x20e>
     d3e:	83 e0       	ldi	r24, 0x03	; 3
     d40:	8c 83       	std	Y+4, r24	; 0x04
	{
		USB_Descriptor_Header_t Header;
		uint16_t                UnicodeString[INTERNAL_SERIAL_LENGTH_BITS / 4];
	} SignatureDescriptor;

	SignatureDescriptor.Header.Type = DTYPE_String;
     d42:	8a e2       	ldi	r24, 0x2A	; 42
     d44:	8b 83       	std	Y+3, r24	; 0x03
	SignatureDescriptor.Header.Size = USB_STRING_LEN(INTERNAL_SERIAL_LENGTH_BITS / 4);
     d46:	5f b7       	in	r21, 0x3f	; 63
     d48:	f8 94       	cli
			static inline uint_reg_t GetGlobalInterruptMask(void)
			{
				GCC_MEMORY_BARRIER();

				#if (ARCH == ARCH_AVR8)
				return SREG;
     d4a:	de 01       	movw	r26, r28
			static inline void GlobalInterruptDisable(void)
			{
				GCC_MEMORY_BARRIER();

				#if (ARCH == ARCH_AVR8)
				cli();
     d4c:	13 96       	adiw	r26, 0x03	; 3
				__builtin_ssrf(AVR32_SR_GM_OFFSET);
				#elif (ARCH == ARCH_XMEGA)
				cli();
				#endif

				GCC_MEMORY_BARRIER();
     d4e:	80 e0       	ldi	r24, 0x00	; 0
     d50:	90 e0       	ldi	r25, 0x00	; 0
     d52:	4e e0       	ldi	r20, 0x0E	; 14
     d54:	61 e2       	ldi	r22, 0x21	; 33
			static inline void USB_Device_GetSerialString(uint16_t* const UnicodeString)
			{
				uint_reg_t CurrentGlobalInt = GetGlobalInterruptMask();
				GlobalInterruptDisable();

				uint8_t SigReadAddress = INTERNAL_SERIAL_START_ADDRESS;
     d56:	e4 2f       	mov	r30, r20

				for (uint8_t SerialCharNum = 0; SerialCharNum < (INTERNAL_SERIAL_LENGTH_BITS / 4); SerialCharNum++)
				{
					uint8_t SerialByte = boot_signature_byte_get(SigReadAddress);
     d58:	f0 e0       	ldi	r31, 0x00	; 0
     d5a:	60 93 57 00 	sts	0x0057, r22
     d5e:	e4 91       	lpm	r30, Z
     d60:	80 ff       	sbrs	r24, 0
     d62:	03 c0       	rjmp	.+6      	; 0xd6a <USB_Device_ProcessControlRequest+0x1d0>

					if (SerialCharNum & 0x01)
     d64:	e2 95       	swap	r30
     d66:	ef 70       	andi	r30, 0x0F	; 15
					{
						SerialByte >>= 4;
     d68:	4f 5f       	subi	r20, 0xFF	; 255
     d6a:	ef 70       	andi	r30, 0x0F	; 15
						SigReadAddress++;
     d6c:	2e 2f       	mov	r18, r30
					}

					SerialByte &= 0x0F;
     d6e:	30 e0       	ldi	r19, 0x00	; 0
     d70:	ea 30       	cpi	r30, 0x0A	; 10
     d72:	18 f0       	brcs	.+6      	; 0xd7a <USB_Device_ProcessControlRequest+0x1e0>

					UnicodeString[SerialCharNum] = cpu_to_le16((SerialByte >= 10) ?
     d74:	29 5c       	subi	r18, 0xC9	; 201
     d76:	3f 4f       	sbci	r19, 0xFF	; 255
     d78:	02 c0       	rjmp	.+4      	; 0xd7e <USB_Device_ProcessControlRequest+0x1e4>
     d7a:	20 5d       	subi	r18, 0xD0	; 208
     d7c:	3f 4f       	sbci	r19, 0xFF	; 255
     d7e:	13 96       	adiw	r26, 0x03	; 3
     d80:	3c 93       	st	X, r19
     d82:	2e 93       	st	-X, r18
     d84:	12 97       	sbiw	r26, 0x02	; 2
     d86:	01 96       	adiw	r24, 0x01	; 1
     d88:	12 96       	adiw	r26, 0x02	; 2
     d8a:	84 31       	cpi	r24, 0x14	; 20
     d8c:	91 05       	cpc	r25, r1
				uint_reg_t CurrentGlobalInt = GetGlobalInterruptMask();
				GlobalInterruptDisable();

				uint8_t SigReadAddress = INTERNAL_SERIAL_START_ADDRESS;

				for (uint8_t SerialCharNum = 0; SerialCharNum < (INTERNAL_SERIAL_LENGTH_BITS / 4); SerialCharNum++)
     d8e:	19 f7       	brne	.-58     	; 0xd56 <USB_Device_ProcessControlRequest+0x1bc>
     d90:	5f bf       	out	0x3f, r21	; 63
     d92:	80 91 e8 00 	lds	r24, 0x00E8
			 *  \note This is not applicable for non CONTROL type endpoints.
			 */
			static inline void Endpoint_ClearSETUP(void) ATTR_ALWAYS_INLINE;
			static inline void Endpoint_ClearSETUP(void)
			{
				UEINTX &= ~(1 << RXSTPI);
     d96:	87 7f       	andi	r24, 0xF7	; 247
     d98:	80 93 e8 00 	sts	0x00E8, r24
     d9c:	ce 01       	movw	r24, r28
     d9e:	03 96       	adiw	r24, 0x03	; 3

	USB_Device_GetSerialString(SignatureDescriptor.UnicodeString);

	Endpoint_ClearSETUP();

	Endpoint_Write_Control_Stream_LE(&SignatureDescriptor, sizeof(SignatureDescriptor));
     da0:	6a e2       	ldi	r22, 0x2A	; 42
     da2:	70 e0       	ldi	r23, 0x00	; 0
     da4:	1d dc       	rcall	.-1990   	; 0x5e0 <Endpoint_Write_Control_Stream_LE>
     da6:	12 c0       	rjmp	.+36     	; 0xdcc <USB_Device_ProcessControlRequest+0x232>
     da8:	60 91 c9 02 	lds	r22, 0x02C9
     dac:	ae 01       	movw	r20, r28
		USB_Device_GetInternalSerialDescriptor();
		return;
	}
	#endif

	if ((DescriptorSize = CALLBACK_USB_GetDescriptor(USB_ControlRequest.wValue, USB_ControlRequest.wIndex,
     dae:	4f 5f       	subi	r20, 0xFF	; 255
     db0:	5f 4f       	sbci	r21, 0xFF	; 255
     db2:	9b db       	rcall	.-2250   	; 0x4ea <CALLBACK_USB_GetDescriptor>
     db4:	bc 01       	movw	r22, r24
     db6:	00 97       	sbiw	r24, 0x00	; 0
     db8:	09 f4       	brne	.+2      	; 0xdbc <USB_Device_ProcessControlRequest+0x222>
     dba:	3b c0       	rjmp	.+118    	; 0xe32 <USB_Device_ProcessControlRequest+0x298>
     dbc:	80 91 e8 00 	lds	r24, 0x00E8
     dc0:	87 7f       	andi	r24, 0xF7	; 247
     dc2:	80 93 e8 00 	sts	0x00E8, r24
     dc6:	89 81       	ldd	r24, Y+1	; 0x01
     dc8:	9a 81       	ldd	r25, Y+2	; 0x02
     dca:	69 dc       	rcall	.-1838   	; 0x69e <Endpoint_Write_Control_PStream_LE>
     dcc:	80 91 e8 00 	lds	r24, 0x00E8
	#if defined(USE_RAM_DESCRIPTORS) || !defined(ARCH_HAS_MULTI_ADDRESS_SPACE)
	Endpoint_Write_Control_Stream_LE(DescriptorPointer, DescriptorSize);
	#elif defined(USE_EEPROM_DESCRIPTORS)
	Endpoint_Write_Control_EStream_LE(DescriptorPointer, DescriptorSize);
	#elif defined(USE_FLASH_DESCRIPTORS)
	Endpoint_Write_Control_PStream_LE(DescriptorPointer, DescriptorSize);
     dd0:	8b 77       	andi	r24, 0x7B	; 123
     dd2:	80 93 e8 00 	sts	0x00E8, r24
			 */
			static inline void Endpoint_ClearOUT(void) ATTR_ALWAYS_INLINE;
			static inline void Endpoint_ClearOUT(void)
			{
				#if !defined(CONTROL_ONLY_DEVICE)
					UEINTX &= ~((1 << RXOUTI) | (1 << FIFOCON));
     dd6:	2d c0       	rjmp	.+90     	; 0xe32 <USB_Device_ProcessControlRequest+0x298>
     dd8:	80 38       	cpi	r24, 0x80	; 128
     dda:	59 f5       	brne	.+86     	; 0xe32 <USB_Device_ProcessControlRequest+0x298>
     ddc:	80 91 e8 00 	lds	r24, 0x00E8
     de0:	87 7f       	andi	r24, 0xF7	; 247
					USB_Device_GetDescriptor();
				}

				break;
			case REQ_GetConfiguration:
				if (bmRequestType == (REQDIR_DEVICETOHOST | REQTYPE_STANDARD | REQREC_DEVICE))
     de2:	80 93 e8 00 	sts	0x00E8, r24
			 *  \note This is not applicable for non CONTROL type endpoints.
			 */
			static inline void Endpoint_ClearSETUP(void) ATTR_ALWAYS_INLINE;
			static inline void Endpoint_ClearSETUP(void)
			{
				UEINTX &= ~(1 << RXSTPI);
     de6:	80 91 c1 02 	lds	r24, 0x02C1
     dea:	80 93 f1 00 	sts	0x00F1, r24
     dee:	80 91 e8 00 	lds	r24, 0x00E8

static void USB_Device_GetConfiguration(void)
{
	Endpoint_ClearSETUP();

	Endpoint_Write_8(USB_Device_ConfigurationNumber);
     df2:	8e 77       	andi	r24, 0x7E	; 126
			 *  \param[in] Data  Data to write into the the currently selected endpoint's FIFO buffer.
			 */
			static inline void Endpoint_Write_8(const uint8_t Data) ATTR_ALWAYS_INLINE;
			static inline void Endpoint_Write_8(const uint8_t Data)
			{
				UEDATX = Data;
     df4:	80 93 e8 00 	sts	0x00E8, r24
			 */
			static inline void Endpoint_ClearIN(void) ATTR_ALWAYS_INLINE;
			static inline void Endpoint_ClearIN(void)
			{
				#if !defined(CONTROL_ONLY_DEVICE)
					UEINTX &= ~((1 << TXINI) | (1 << FIFOCON));
     df8:	24 dd       	rcall	.-1464   	; 0x842 <Endpoint_ClearStatusStage>
     dfa:	1b c0       	rjmp	.+54     	; 0xe32 <USB_Device_ProcessControlRequest+0x298>
     dfc:	88 23       	and	r24, r24
     dfe:	c9 f4       	brne	.+50     	; 0xe32 <USB_Device_ProcessControlRequest+0x298>
     e00:	90 91 c7 02 	lds	r25, 0x02C7
	Endpoint_ClearIN();

	Endpoint_ClearStatusStage();
     e04:	92 30       	cpi	r25, 0x02	; 2
     e06:	a8 f4       	brcc	.+42     	; 0xe32 <USB_Device_ProcessControlRequest+0x298>
				if (bmRequestType == (REQDIR_DEVICETOHOST | REQTYPE_STANDARD | REQREC_DEVICE))
				  USB_Device_GetConfiguration();

				break;
			case REQ_SetConfiguration:
				if (bmRequestType == (REQDIR_HOSTTODEVICE | REQTYPE_STANDARD | REQREC_DEVICE))
     e08:	80 91 e8 00 	lds	r24, 0x00E8
}

static void USB_Device_SetConfiguration(void)
{
	#if defined(FIXED_NUM_CONFIGURATIONS)
	if ((uint8_t)USB_ControlRequest.wValue > FIXED_NUM_CONFIGURATIONS)
     e0c:	87 7f       	andi	r24, 0xF7	; 247
     e0e:	80 93 e8 00 	sts	0x00E8, r24
     e12:	90 93 c1 02 	sts	0x02C1, r25
			 *  \note This is not applicable for non CONTROL type endpoints.
			 */
			static inline void Endpoint_ClearSETUP(void) ATTR_ALWAYS_INLINE;
			static inline void Endpoint_ClearSETUP(void)
			{
				UEINTX &= ~(1 << RXSTPI);
     e16:	15 dd       	rcall	.-1494   	; 0x842 <Endpoint_ClearStatusStage>
     e18:	80 91 c1 02 	lds	r24, 0x02C1
     e1c:	88 23       	and	r24, r24
	#endif
	#endif

	Endpoint_ClearSETUP();

	USB_Device_ConfigurationNumber = (uint8_t)USB_ControlRequest.wValue;
     e1e:	21 f4       	brne	.+8      	; 0xe28 <USB_Device_ProcessControlRequest+0x28e>
     e20:	80 91 e3 00 	lds	r24, 0x00E3

	Endpoint_ClearStatusStage();
     e24:	87 ff       	sbrs	r24, 7

	if (USB_Device_ConfigurationNumber)
     e26:	02 c0       	rjmp	.+4      	; 0xe2c <USB_Device_ProcessControlRequest+0x292>
     e28:	84 e0       	ldi	r24, 0x04	; 4
     e2a:	01 c0       	rjmp	.+2      	; 0xe2e <USB_Device_ProcessControlRequest+0x294>
     e2c:	81 e0       	ldi	r24, 0x01	; 1
			}

			static inline bool USB_Device_IsAddressSet(void) ATTR_ALWAYS_INLINE ATTR_WARN_UNUSED_RESULT;
			static inline bool USB_Device_IsAddressSet(void)
			{
				return (UDADDR & (1 << ADDEN));
     e2e:	8e bb       	out	0x1e, r24	; 30
     e30:	b7 da       	rcall	.-2706   	; 0x3a0 <EVENT_USB_Device_ConfigurationChanged>
	  USB_DeviceState = DEVICE_STATE_Configured;
	else
	  USB_DeviceState = (USB_Device_IsAddressSet()) ? DEVICE_STATE_Configured : DEVICE_STATE_Powered;
     e32:	80 91 e8 00 	lds	r24, 0x00E8
     e36:	83 ff       	sbrs	r24, 3
     e38:	0a c0       	rjmp	.+20     	; 0xe4e <USB_Device_ProcessControlRequest+0x2b4>
     e3a:	80 91 e8 00 	lds	r24, 0x00E8

	EVENT_USB_Device_ConfigurationChanged();
     e3e:	87 7f       	andi	r24, 0xF7	; 247
     e40:	80 93 e8 00 	sts	0x00E8, r24
			 *  \return Boolean \c true if the selected endpoint has received a SETUP packet, \c false otherwise.
			 */
			static inline bool Endpoint_IsSETUPReceived(void) ATTR_WARN_UNUSED_RESULT ATTR_ALWAYS_INLINE;
			static inline bool Endpoint_IsSETUPReceived(void)
			{
				return ((UEINTX & (1 << RXSTPI)) ? true : false);
     e44:	80 91 eb 00 	lds	r24, 0x00EB
			default:
				break;
		}
	}

	if (Endpoint_IsSETUPReceived())
     e48:	80 62       	ori	r24, 0x20	; 32
			 *  \note This is not applicable for non CONTROL type endpoints.
			 */
			static inline void Endpoint_ClearSETUP(void) ATTR_ALWAYS_INLINE;
			static inline void Endpoint_ClearSETUP(void)
			{
				UEINTX &= ~(1 << RXSTPI);
     e4a:	80 93 eb 00 	sts	0x00EB, r24
     e4e:	ac 96       	adiw	r28, 0x2c	; 44
     e50:	0f b6       	in	r0, 0x3f	; 63
     e52:	f8 94       	cli
			 *  \ingroup Group_EndpointPacketManagement_AVR8
			 */
			static inline void Endpoint_StallTransaction(void) ATTR_ALWAYS_INLINE;
			static inline void Endpoint_StallTransaction(void)
			{
				UECONX |= (1 << STALLRQ);
     e54:	de bf       	out	0x3e, r29	; 62
     e56:	0f be       	out	0x3f, r0	; 63
     e58:	cd bf       	out	0x3d, r28	; 61
     e5a:	df 91       	pop	r29
     e5c:	cf 91       	pop	r28
	{
		Endpoint_ClearSETUP();
		Endpoint_StallTransaction();
	}
}
     e5e:	1f 91       	pop	r17
     e60:	08 95       	ret

00000e62 <USB_Event_Stub>:
#include "Events.h"

void USB_Event_Stub(void)
{

}
     e62:	08 95       	ret

00000e64 <USB_USBTask>:
#if defined(USB_CAN_BE_DEVICE) && !defined(DEVICE_STATE_AS_GPIOR)
volatile uint8_t     USB_DeviceState;
#endif

void USB_USBTask(void)
{
     e64:	cf 93       	push	r28
}

#if defined(USB_CAN_BE_DEVICE)
static void USB_DeviceTask(void)
{
	if (USB_DeviceState == DEVICE_STATE_Unattached)
     e66:	8e b3       	in	r24, 0x1e	; 30
     e68:	88 23       	and	r24, r24
     e6a:	a9 f0       	breq	.+42     	; 0xe96 <USB_USBTask+0x32>
			 */
			static inline uint8_t Endpoint_GetCurrentEndpoint(void) ATTR_WARN_UNUSED_RESULT ATTR_ALWAYS_INLINE;
			static inline uint8_t Endpoint_GetCurrentEndpoint(void)
			{
				#if !defined(CONTROL_ONLY_DEVICE)
					return ((UENUM & ENDPOINT_EPNUM_MASK) | Endpoint_GetEndpointDirection());
     e6c:	80 91 e9 00 	lds	r24, 0x00E9
     e70:	8f 70       	andi	r24, 0x0F	; 15
			 *  \return The currently selected endpoint's direction, as a \c ENDPOINT_DIR_* mask.
			 */
			static inline uint8_t Endpoint_GetEndpointDirection(void) ATTR_WARN_UNUSED_RESULT ATTR_ALWAYS_INLINE;
			static inline uint8_t Endpoint_GetEndpointDirection(void)
			{
				return (UECFG0X & (1 << EPDIR)) ? ENDPOINT_DIR_IN : ENDPOINT_DIR_OUT;
     e72:	90 91 ec 00 	lds	r25, 0x00EC
     e76:	90 ff       	sbrs	r25, 0
     e78:	02 c0       	rjmp	.+4      	; 0xe7e <USB_USBTask+0x1a>
     e7a:	c0 e8       	ldi	r28, 0x80	; 128
     e7c:	01 c0       	rjmp	.+2      	; 0xe80 <USB_USBTask+0x1c>
     e7e:	c0 e0       	ldi	r28, 0x00	; 0
			 */
			static inline uint8_t Endpoint_GetCurrentEndpoint(void) ATTR_WARN_UNUSED_RESULT ATTR_ALWAYS_INLINE;
			static inline uint8_t Endpoint_GetCurrentEndpoint(void)
			{
				#if !defined(CONTROL_ONLY_DEVICE)
					return ((UENUM & ENDPOINT_EPNUM_MASK) | Endpoint_GetEndpointDirection());
     e80:	c8 2b       	or	r28, r24
			 */
			static inline void Endpoint_SelectEndpoint(const uint8_t Address) ATTR_ALWAYS_INLINE;
			static inline void Endpoint_SelectEndpoint(const uint8_t Address)
			{
				#if !defined(CONTROL_ONLY_DEVICE)
					UENUM = (Address & ENDPOINT_EPNUM_MASK);
     e82:	10 92 e9 00 	sts	0x00E9, r1
			 *  \return Boolean \c true if the selected endpoint has received a SETUP packet, \c false otherwise.
			 */
			static inline bool Endpoint_IsSETUPReceived(void) ATTR_WARN_UNUSED_RESULT ATTR_ALWAYS_INLINE;
			static inline bool Endpoint_IsSETUPReceived(void)
			{
				return ((UEINTX & (1 << RXSTPI)) ? true : false);
     e86:	80 91 e8 00 	lds	r24, 0x00E8

	uint8_t PrevEndpoint = Endpoint_GetCurrentEndpoint();

	Endpoint_SelectEndpoint(ENDPOINT_CONTROLEP);

	if (Endpoint_IsSETUPReceived())
     e8a:	83 ff       	sbrs	r24, 3
     e8c:	01 c0       	rjmp	.+2      	; 0xe90 <USB_USBTask+0x2c>
	  USB_Device_ProcessControlRequest();
     e8e:	85 de       	rcall	.-758    	; 0xb9a <USB_Device_ProcessControlRequest>
     e90:	cf 70       	andi	r28, 0x0F	; 15
			 */
			static inline void Endpoint_SelectEndpoint(const uint8_t Address) ATTR_ALWAYS_INLINE;
			static inline void Endpoint_SelectEndpoint(const uint8_t Address)
			{
				#if !defined(CONTROL_ONLY_DEVICE)
					UENUM = (Address & ENDPOINT_EPNUM_MASK);
     e92:	c0 93 e9 00 	sts	0x00E9, r28
     e96:	cf 91       	pop	r28
	#elif defined(USB_CAN_BE_HOST)
		USB_HostTask();
	#elif defined(USB_CAN_BE_DEVICE)
		USB_DeviceTask();
	#endif
}
     e98:	08 95       	ret

00000e9a <CDC_Device_ProcessControlRequest>:
#define  __INCLUDE_FROM_CDC_DRIVER
#define  __INCLUDE_FROM_CDC_DEVICE_C
#include "CDCClassDevice.h"

void CDC_Device_ProcessControlRequest(USB_ClassInfo_CDC_Device_t* const CDCInterfaceInfo)
{
     e9a:	cf 93       	push	r28
     e9c:	df 93       	push	r29
     e9e:	ec 01       	movw	r28, r24
			 *  \return Boolean \c true if the selected endpoint has received a SETUP packet, \c false otherwise.
			 */
			static inline bool Endpoint_IsSETUPReceived(void) ATTR_WARN_UNUSED_RESULT ATTR_ALWAYS_INLINE;
			static inline bool Endpoint_IsSETUPReceived(void)
			{
				return ((UEINTX & (1 << RXSTPI)) ? true : false);
     ea0:	80 91 e8 00 	lds	r24, 0x00E8
	if (!(Endpoint_IsSETUPReceived()))
     ea4:	83 ff       	sbrs	r24, 3
     ea6:	a2 c0       	rjmp	.+324    	; 0xfec <CDC_Device_ProcessControlRequest+0x152>
	  return;

	if (USB_ControlRequest.wIndex != CDCInterfaceInfo->Config.ControlInterfaceNumber)
     ea8:	88 81       	ld	r24, Y
     eaa:	90 e0       	ldi	r25, 0x00	; 0
     eac:	20 91 c9 02 	lds	r18, 0x02C9
     eb0:	30 91 ca 02 	lds	r19, 0x02CA
     eb4:	28 17       	cp	r18, r24
     eb6:	39 07       	cpc	r19, r25
     eb8:	09 f0       	breq	.+2      	; 0xebc <CDC_Device_ProcessControlRequest+0x22>
     eba:	98 c0       	rjmp	.+304    	; 0xfec <CDC_Device_ProcessControlRequest+0x152>
	  return;

	switch (USB_ControlRequest.bRequest)
     ebc:	80 91 c6 02 	lds	r24, 0x02C6
     ec0:	81 32       	cpi	r24, 0x21	; 33
     ec2:	69 f0       	breq	.+26     	; 0xede <CDC_Device_ProcessControlRequest+0x44>
     ec4:	82 32       	cpi	r24, 0x22	; 34
     ec6:	20 f4       	brcc	.+8      	; 0xed0 <CDC_Device_ProcessControlRequest+0x36>
     ec8:	80 32       	cpi	r24, 0x20	; 32
     eca:	09 f0       	breq	.+2      	; 0xece <CDC_Device_ProcessControlRequest+0x34>
     ecc:	8f c0       	rjmp	.+286    	; 0xfec <CDC_Device_ProcessControlRequest+0x152>
     ece:	3c c0       	rjmp	.+120    	; 0xf48 <CDC_Device_ProcessControlRequest+0xae>
     ed0:	82 32       	cpi	r24, 0x22	; 34
     ed2:	09 f4       	brne	.+2      	; 0xed6 <CDC_Device_ProcessControlRequest+0x3c>
     ed4:	6a c0       	rjmp	.+212    	; 0xfaa <CDC_Device_ProcessControlRequest+0x110>
     ed6:	83 32       	cpi	r24, 0x23	; 35
     ed8:	09 f0       	breq	.+2      	; 0xedc <CDC_Device_ProcessControlRequest+0x42>
     eda:	88 c0       	rjmp	.+272    	; 0xfec <CDC_Device_ProcessControlRequest+0x152>
     edc:	79 c0       	rjmp	.+242    	; 0xfd0 <CDC_Device_ProcessControlRequest+0x136>
	{
		case CDC_REQ_GetLineEncoding:
			if (USB_ControlRequest.bmRequestType == (REQDIR_DEVICETOHOST | REQTYPE_CLASS | REQREC_INTERFACE))
     ede:	80 91 c5 02 	lds	r24, 0x02C5
     ee2:	81 3a       	cpi	r24, 0xA1	; 161
     ee4:	09 f0       	breq	.+2      	; 0xee8 <CDC_Device_ProcessControlRequest+0x4e>
     ee6:	82 c0       	rjmp	.+260    	; 0xfec <CDC_Device_ProcessControlRequest+0x152>
			 *  \note This is not applicable for non CONTROL type endpoints.
			 */
			static inline void Endpoint_ClearSETUP(void) ATTR_ALWAYS_INLINE;
			static inline void Endpoint_ClearSETUP(void)
			{
				UEINTX &= ~(1 << RXSTPI);
     ee8:	80 91 e8 00 	lds	r24, 0x00E8
     eec:	87 7f       	andi	r24, 0xF7	; 247
     eee:	80 93 e8 00 	sts	0x00E8, r24
			 *  \return Boolean \c true if the current endpoint is ready for an IN packet, \c false otherwise.
			 */
			static inline bool Endpoint_IsINReady(void) ATTR_WARN_UNUSED_RESULT ATTR_ALWAYS_INLINE;
			static inline bool Endpoint_IsINReady(void)
			{
				return ((UEINTX & (1 << TXINI)) ? true : false);
     ef2:	80 91 e8 00 	lds	r24, 0x00E8
			{
				Endpoint_ClearSETUP();

				while (!(Endpoint_IsINReady()));
     ef6:	80 ff       	sbrs	r24, 0
     ef8:	fc cf       	rjmp	.-8      	; 0xef2 <CDC_Device_ProcessControlRequest+0x58>

				Endpoint_Write_32_LE(CDCInterfaceInfo->State.LineEncoding.BaudRateBPS);
     efa:	8c 89       	ldd	r24, Y+20	; 0x14
     efc:	9d 89       	ldd	r25, Y+21	; 0x15
     efe:	ae 89       	ldd	r26, Y+22	; 0x16
     f00:	bf 89       	ldd	r27, Y+23	; 0x17
			 *  \param[in] Data  Data to write to the currently selected endpoint's FIFO buffer.
			 */
			static inline void Endpoint_Write_32_LE(const uint32_t Data) ATTR_ALWAYS_INLINE;
			static inline void Endpoint_Write_32_LE(const uint32_t Data)
			{
				UEDATX = (Data &  0xFF);
     f02:	80 93 f1 00 	sts	0x00F1, r24
				UEDATX = (Data >> 8);
     f06:	49 2f       	mov	r20, r25
     f08:	5a 2f       	mov	r21, r26
     f0a:	6b 2f       	mov	r22, r27
     f0c:	77 27       	eor	r23, r23
     f0e:	40 93 f1 00 	sts	0x00F1, r20
				UEDATX = (Data >> 16);
     f12:	ad 01       	movw	r20, r26
     f14:	66 27       	eor	r22, r22
     f16:	77 27       	eor	r23, r23
     f18:	40 93 f1 00 	sts	0x00F1, r20
				UEDATX = (Data >> 24);
     f1c:	8b 2f       	mov	r24, r27
     f1e:	99 27       	eor	r25, r25
     f20:	aa 27       	eor	r26, r26
     f22:	bb 27       	eor	r27, r27
     f24:	80 93 f1 00 	sts	0x00F1, r24
				Endpoint_Write_8(CDCInterfaceInfo->State.LineEncoding.CharFormat);
     f28:	88 8d       	ldd	r24, Y+24	; 0x18
			 *  \param[in] Data  Data to write into the the currently selected endpoint's FIFO buffer.
			 */
			static inline void Endpoint_Write_8(const uint8_t Data) ATTR_ALWAYS_INLINE;
			static inline void Endpoint_Write_8(const uint8_t Data)
			{
				UEDATX = Data;
     f2a:	80 93 f1 00 	sts	0x00F1, r24
				Endpoint_Write_8(CDCInterfaceInfo->State.LineEncoding.ParityType);
     f2e:	89 8d       	ldd	r24, Y+25	; 0x19
     f30:	80 93 f1 00 	sts	0x00F1, r24
				Endpoint_Write_8(CDCInterfaceInfo->State.LineEncoding.DataBits);
     f34:	8a 8d       	ldd	r24, Y+26	; 0x1a
     f36:	80 93 f1 00 	sts	0x00F1, r24
			 */
			static inline void Endpoint_ClearIN(void) ATTR_ALWAYS_INLINE;
			static inline void Endpoint_ClearIN(void)
			{
				#if !defined(CONTROL_ONLY_DEVICE)
					UEINTX &= ~((1 << TXINI) | (1 << FIFOCON));
     f3a:	80 91 e8 00 	lds	r24, 0x00E8
     f3e:	8e 77       	andi	r24, 0x7E	; 126
     f40:	80 93 e8 00 	sts	0x00E8, r24

				Endpoint_ClearIN();
				Endpoint_ClearStatusStage();
     f44:	7e dc       	rcall	.-1796   	; 0x842 <Endpoint_ClearStatusStage>
     f46:	52 c0       	rjmp	.+164    	; 0xfec <CDC_Device_ProcessControlRequest+0x152>
     f48:	80 91 c5 02 	lds	r24, 0x02C5
			}

			break;
		case CDC_REQ_SetLineEncoding:
			if (USB_ControlRequest.bmRequestType == (REQDIR_HOSTTODEVICE | REQTYPE_CLASS | REQREC_INTERFACE))
     f4c:	81 32       	cpi	r24, 0x21	; 33
     f4e:	09 f0       	breq	.+2      	; 0xf52 <CDC_Device_ProcessControlRequest+0xb8>
     f50:	4d c0       	rjmp	.+154    	; 0xfec <CDC_Device_ProcessControlRequest+0x152>
     f52:	80 91 e8 00 	lds	r24, 0x00E8
			 *  \note This is not applicable for non CONTROL type endpoints.
			 */
			static inline void Endpoint_ClearSETUP(void) ATTR_ALWAYS_INLINE;
			static inline void Endpoint_ClearSETUP(void)
			{
				UEINTX &= ~(1 << RXSTPI);
     f56:	87 7f       	andi	r24, 0xF7	; 247
     f58:	80 93 e8 00 	sts	0x00E8, r24
     f5c:	04 c0       	rjmp	.+8      	; 0xf66 <CDC_Device_ProcessControlRequest+0xcc>
     f5e:	8e b3       	in	r24, 0x1e	; 30
			{
				Endpoint_ClearSETUP();

				while (!(Endpoint_IsOUTReceived()))
				{
					if (USB_DeviceState == DEVICE_STATE_Unattached)
     f60:	88 23       	and	r24, r24
     f62:	09 f4       	brne	.+2      	; 0xf66 <CDC_Device_ProcessControlRequest+0xcc>
     f64:	43 c0       	rjmp	.+134    	; 0xfec <CDC_Device_ProcessControlRequest+0x152>
     f66:	80 91 e8 00 	lds	r24, 0x00E8
			 *  \return Boolean \c true if current endpoint is has received an OUT packet, \c false otherwise.
			 */
			static inline bool Endpoint_IsOUTReceived(void) ATTR_WARN_UNUSED_RESULT ATTR_ALWAYS_INLINE;
			static inline bool Endpoint_IsOUTReceived(void)
			{
				return ((UEINTX & (1 << RXOUTI)) ? true : false);
     f6a:	82 ff       	sbrs	r24, 2
		case CDC_REQ_SetLineEncoding:
			if (USB_ControlRequest.bmRequestType == (REQDIR_HOSTTODEVICE | REQTYPE_CLASS | REQREC_INTERFACE))
			{
				Endpoint_ClearSETUP();

				while (!(Endpoint_IsOUTReceived()))
     f6c:	f8 cf       	rjmp	.-16     	; 0xf5e <CDC_Device_ProcessControlRequest+0xc4>
     f6e:	30 91 f1 00 	lds	r19, 0x00F1
				{
					uint32_t Value;
					uint8_t  Bytes[4];
				} Data;

				Data.Bytes[0] = UEDATX;
     f72:	20 91 f1 00 	lds	r18, 0x00F1
				Data.Bytes[1] = UEDATX;
     f76:	90 91 f1 00 	lds	r25, 0x00F1
				Data.Bytes[2] = UEDATX;
     f7a:	80 91 f1 00 	lds	r24, 0x00F1
				Data.Bytes[3] = UEDATX;
     f7e:	3c 8b       	std	Y+20, r19	; 0x14
				{
					if (USB_DeviceState == DEVICE_STATE_Unattached)
					  return;
				}

				CDCInterfaceInfo->State.LineEncoding.BaudRateBPS = Endpoint_Read_32_LE();
     f80:	2d 8b       	std	Y+21, r18	; 0x15
     f82:	9e 8b       	std	Y+22, r25	; 0x16
     f84:	8f 8b       	std	Y+23, r24	; 0x17
     f86:	80 91 f1 00 	lds	r24, 0x00F1
			 *  \return Next byte in the currently selected endpoint's FIFO buffer.
			 */
			static inline uint8_t Endpoint_Read_8(void) ATTR_WARN_UNUSED_RESULT ATTR_ALWAYS_INLINE;
			static inline uint8_t Endpoint_Read_8(void)
			{
				return UEDATX;
     f8a:	88 8f       	std	Y+24, r24	; 0x18
				CDCInterfaceInfo->State.LineEncoding.CharFormat  = Endpoint_Read_8();
     f8c:	80 91 f1 00 	lds	r24, 0x00F1
     f90:	89 8f       	std	Y+25, r24	; 0x19
				CDCInterfaceInfo->State.LineEncoding.ParityType  = Endpoint_Read_8();
     f92:	80 91 f1 00 	lds	r24, 0x00F1
     f96:	8a 8f       	std	Y+26, r24	; 0x1a
				CDCInterfaceInfo->State.LineEncoding.DataBits    = Endpoint_Read_8();
     f98:	80 91 e8 00 	lds	r24, 0x00E8
			 */
			static inline void Endpoint_ClearOUT(void) ATTR_ALWAYS_INLINE;
			static inline void Endpoint_ClearOUT(void)
			{
				#if !defined(CONTROL_ONLY_DEVICE)
					UEINTX &= ~((1 << RXOUTI) | (1 << FIFOCON));
     f9c:	8b 77       	andi	r24, 0x7B	; 123
     f9e:	80 93 e8 00 	sts	0x00E8, r24
     fa2:	4f dc       	rcall	.-1890   	; 0x842 <Endpoint_ClearStatusStage>

				Endpoint_ClearOUT();
				Endpoint_ClearStatusStage();
     fa4:	ce 01       	movw	r24, r28
     fa6:	5e da       	rcall	.-2884   	; 0x464 <EVENT_CDC_Device_LineEncodingChanged>

				EVENT_CDC_Device_LineEncodingChanged(CDCInterfaceInfo);
     fa8:	21 c0       	rjmp	.+66     	; 0xfec <CDC_Device_ProcessControlRequest+0x152>
     faa:	80 91 c5 02 	lds	r24, 0x02C5
     fae:	81 32       	cpi	r24, 0x21	; 33
			}

			break;
		case CDC_REQ_SetControlLineState:
			if (USB_ControlRequest.bmRequestType == (REQDIR_HOSTTODEVICE | REQTYPE_CLASS | REQREC_INTERFACE))
     fb0:	e9 f4       	brne	.+58     	; 0xfec <CDC_Device_ProcessControlRequest+0x152>
     fb2:	80 91 e8 00 	lds	r24, 0x00E8
     fb6:	87 7f       	andi	r24, 0xF7	; 247
			 *  \note This is not applicable for non CONTROL type endpoints.
			 */
			static inline void Endpoint_ClearSETUP(void) ATTR_ALWAYS_INLINE;
			static inline void Endpoint_ClearSETUP(void)
			{
				UEINTX &= ~(1 << RXSTPI);
     fb8:	80 93 e8 00 	sts	0x00E8, r24
     fbc:	42 dc       	rcall	.-1916   	; 0x842 <Endpoint_ClearStatusStage>
     fbe:	80 91 c7 02 	lds	r24, 0x02C7
			{
				Endpoint_ClearSETUP();
				Endpoint_ClearStatusStage();
     fc2:	90 91 c8 02 	lds	r25, 0x02C8

				CDCInterfaceInfo->State.ControlLineStates.HostToDevice = USB_ControlRequest.wValue;
     fc6:	99 8b       	std	Y+17, r25	; 0x11
     fc8:	88 8b       	std	Y+16, r24	; 0x10
     fca:	ce 01       	movw	r24, r28
     fcc:	66 d1       	rcall	.+716    	; 0x129a <CDC_Device_Event_Stub>
     fce:	0e c0       	rjmp	.+28     	; 0xfec <CDC_Device_ProcessControlRequest+0x152>
     fd0:	80 91 c5 02 	lds	r24, 0x02C5

				EVENT_CDC_Device_ControLineStateChanged(CDCInterfaceInfo);
     fd4:	81 32       	cpi	r24, 0x21	; 33
     fd6:	51 f4       	brne	.+20     	; 0xfec <CDC_Device_ProcessControlRequest+0x152>
     fd8:	80 91 e8 00 	lds	r24, 0x00E8
			}

			break;
		case CDC_REQ_SendBreak:
			if (USB_ControlRequest.bmRequestType == (REQDIR_HOSTTODEVICE | REQTYPE_CLASS | REQREC_INTERFACE))
     fdc:	87 7f       	andi	r24, 0xF7	; 247
     fde:	80 93 e8 00 	sts	0x00E8, r24
     fe2:	2f dc       	rcall	.-1954   	; 0x842 <Endpoint_ClearStatusStage>
     fe4:	ce 01       	movw	r24, r28
     fe6:	60 91 c7 02 	lds	r22, 0x02C7
     fea:	57 d1       	rcall	.+686    	; 0x129a <CDC_Device_Event_Stub>
			{
				Endpoint_ClearSETUP();
				Endpoint_ClearStatusStage();
     fec:	df 91       	pop	r29
     fee:	cf 91       	pop	r28

				EVENT_CDC_Device_BreakSent(CDCInterfaceInfo, (uint8_t)USB_ControlRequest.wValue);
     ff0:	08 95       	ret

00000ff2 <CDC_Device_ConfigureEndpoints>:
     ff2:	cf 93       	push	r28
     ff4:	df 93       	push	r29
     ff6:	ec 01       	movw	r28, r24
     ff8:	40 96       	adiw	r24, 0x10	; 16
			}

			break;
	}
}
     ffa:	fc 01       	movw	r30, r24
     ffc:	8b e0       	ldi	r24, 0x0B	; 11
     ffe:	df 01       	movw	r26, r30

bool CDC_Device_ConfigureEndpoints(USB_ClassInfo_CDC_Device_t* const CDCInterfaceInfo)
{
	memset(&CDCInterfaceInfo->State, 0x00, sizeof(CDCInterfaceInfo->State));
    1000:	1d 92       	st	X+, r1
    1002:	8a 95       	dec	r24
    1004:	e9 f7       	brne	.-6      	; 0x1000 <CDC_Device_ConfigureEndpoints+0xe>

	CDCInterfaceInfo->Config.DataINEndpoint.Type       = EP_TYPE_BULK;
    1006:	82 e0       	ldi	r24, 0x02	; 2
    1008:	8c 83       	std	Y+4, r24	; 0x04
	CDCInterfaceInfo->Config.DataOUTEndpoint.Type      = EP_TYPE_BULK;
    100a:	89 87       	std	Y+9, r24	; 0x09
	CDCInterfaceInfo->Config.NotificationEndpoint.Type = EP_TYPE_INTERRUPT;
    100c:	83 e0       	ldi	r24, 0x03	; 3
    100e:	8e 87       	std	Y+14, r24	; 0x0e

	if (!(Endpoint_ConfigureEndpointTable(&CDCInterfaceInfo->Config.DataINEndpoint, 1)))
    1010:	ce 01       	movw	r24, r28
    1012:	01 96       	adiw	r24, 0x01	; 1
    1014:	61 e0       	ldi	r22, 0x01	; 1
    1016:	d9 db       	rcall	.-2126   	; 0x7ca <Endpoint_ConfigureEndpointTable>
    1018:	88 23       	and	r24, r24
    101a:	59 f0       	breq	.+22     	; 0x1032 <CDC_Device_ConfigureEndpoints+0x40>
    101c:	ce 01       	movw	r24, r28
	  return false;

	if (!(Endpoint_ConfigureEndpointTable(&CDCInterfaceInfo->Config.DataOUTEndpoint, 1)))
    101e:	06 96       	adiw	r24, 0x06	; 6
    1020:	61 e0       	ldi	r22, 0x01	; 1
    1022:	d3 db       	rcall	.-2138   	; 0x7ca <Endpoint_ConfigureEndpointTable>
    1024:	88 23       	and	r24, r24
    1026:	29 f0       	breq	.+10     	; 0x1032 <CDC_Device_ConfigureEndpoints+0x40>
    1028:	ce 01       	movw	r24, r28
    102a:	0b 96       	adiw	r24, 0x0b	; 11
	  return false;

	if (!(Endpoint_ConfigureEndpointTable(&CDCInterfaceInfo->Config.NotificationEndpoint, 1)))
    102c:	61 e0       	ldi	r22, 0x01	; 1
    102e:	cd db       	rcall	.-2150   	; 0x7ca <Endpoint_ConfigureEndpointTable>
    1030:	01 c0       	rjmp	.+2      	; 0x1034 <CDC_Device_ConfigureEndpoints+0x42>
    1032:	80 e0       	ldi	r24, 0x00	; 0
    1034:	df 91       	pop	r29
    1036:	cf 91       	pop	r28

	if (!(Endpoint_ConfigureEndpointTable(&CDCInterfaceInfo->Config.DataINEndpoint, 1)))
	  return false;

	if (!(Endpoint_ConfigureEndpointTable(&CDCInterfaceInfo->Config.DataOUTEndpoint, 1)))
	  return false;
    1038:	08 95       	ret

0000103a <CDC_Device_SendString>:

	if (!(Endpoint_ConfigureEndpointTable(&CDCInterfaceInfo->Config.NotificationEndpoint, 1)))
	  return false;

	return true;
}
    103a:	fc 01       	movw	r30, r24
    103c:	cb 01       	movw	r24, r22
    103e:	2e b3       	in	r18, 0x1e	; 30
}

uint8_t CDC_Device_SendString(USB_ClassInfo_CDC_Device_t* const CDCInterfaceInfo,
                              const char* const String)
{
	if ((USB_DeviceState != DEVICE_STATE_Configured) || !(CDCInterfaceInfo->State.LineEncoding.BaudRateBPS))
    1040:	24 30       	cpi	r18, 0x04	; 4
    1042:	c1 f4       	brne	.+48     	; 0x1074 <CDC_Device_SendString+0x3a>
    1044:	44 89       	ldd	r20, Z+20	; 0x14
    1046:	55 89       	ldd	r21, Z+21	; 0x15
    1048:	66 89       	ldd	r22, Z+22	; 0x16
    104a:	77 89       	ldd	r23, Z+23	; 0x17
    104c:	41 15       	cp	r20, r1
    104e:	51 05       	cpc	r21, r1
    1050:	61 05       	cpc	r22, r1
    1052:	71 05       	cpc	r23, r1
    1054:	89 f0       	breq	.+34     	; 0x1078 <CDC_Device_SendString+0x3e>
			 */
			static inline void Endpoint_SelectEndpoint(const uint8_t Address) ATTR_ALWAYS_INLINE;
			static inline void Endpoint_SelectEndpoint(const uint8_t Address)
			{
				#if !defined(CONTROL_ONLY_DEVICE)
					UENUM = (Address & ENDPOINT_EPNUM_MASK);
    1056:	21 81       	ldd	r18, Z+1	; 0x01
    1058:	2f 70       	andi	r18, 0x0F	; 15
    105a:	20 93 e9 00 	sts	0x00E9, r18
	  return ENDPOINT_RWSTREAM_DeviceDisconnected;

	Endpoint_SelectEndpoint(CDCInterfaceInfo->Config.DataINEndpoint.Address);
	return Endpoint_Write_Stream_LE(String, strlen(String), NULL);
    105e:	fc 01       	movw	r30, r24
    1060:	01 90       	ld	r0, Z+
    1062:	00 20       	and	r0, r0
    1064:	e9 f7       	brne	.-6      	; 0x1060 <CDC_Device_SendString+0x26>
    1066:	31 97       	sbiw	r30, 0x01	; 1
    1068:	e8 1b       	sub	r30, r24
    106a:	f9 0b       	sbc	r31, r25
    106c:	bf 01       	movw	r22, r30
    106e:	40 e0       	ldi	r20, 0x00	; 0
    1070:	50 e0       	ldi	r21, 0x00	; 0
    1072:	67 ca       	rjmp	.-2866   	; 0x542 <Endpoint_Write_Stream_LE>
    1074:	82 e0       	ldi	r24, 0x02	; 2
    1076:	08 95       	ret

uint8_t CDC_Device_SendString(USB_ClassInfo_CDC_Device_t* const CDCInterfaceInfo,
                              const char* const String)
{
	if ((USB_DeviceState != DEVICE_STATE_Configured) || !(CDCInterfaceInfo->State.LineEncoding.BaudRateBPS))
	  return ENDPOINT_RWSTREAM_DeviceDisconnected;
    1078:	82 e0       	ldi	r24, 0x02	; 2
    107a:	08 95       	ret

0000107c <CDC_Device_SendByte>:
    107c:	cf 93       	push	r28

	Endpoint_SelectEndpoint(CDCInterfaceInfo->Config.DataINEndpoint.Address);
	return Endpoint_Write_Stream_LE(String, strlen(String), NULL);
}
    107e:	fc 01       	movw	r30, r24
	return Endpoint_Write_Stream_LE(Buffer, Length, NULL);
}

uint8_t CDC_Device_SendByte(USB_ClassInfo_CDC_Device_t* const CDCInterfaceInfo,
                            const uint8_t Data)
{
    1080:	c6 2f       	mov	r28, r22
	if ((USB_DeviceState != DEVICE_STATE_Configured) || !(CDCInterfaceInfo->State.LineEncoding.BaudRateBPS))
    1082:	8e b3       	in	r24, 0x1e	; 30
    1084:	84 30       	cpi	r24, 0x04	; 4
    1086:	e9 f4       	brne	.+58     	; 0x10c2 <CDC_Device_SendByte+0x46>
    1088:	44 89       	ldd	r20, Z+20	; 0x14
    108a:	55 89       	ldd	r21, Z+21	; 0x15
    108c:	66 89       	ldd	r22, Z+22	; 0x16
    108e:	77 89       	ldd	r23, Z+23	; 0x17
    1090:	41 15       	cp	r20, r1
    1092:	51 05       	cpc	r21, r1
    1094:	61 05       	cpc	r22, r1
    1096:	71 05       	cpc	r23, r1
    1098:	a1 f0       	breq	.+40     	; 0x10c2 <CDC_Device_SendByte+0x46>
    109a:	81 81       	ldd	r24, Z+1	; 0x01
    109c:	8f 70       	andi	r24, 0x0F	; 15
    109e:	80 93 e9 00 	sts	0x00E9, r24
			 *          on its direction.
			 */
			static inline bool Endpoint_IsReadWriteAllowed(void) ATTR_WARN_UNUSED_RESULT ATTR_ALWAYS_INLINE;
			static inline bool Endpoint_IsReadWriteAllowed(void)
			{
				return ((UEINTX & (1 << RWAL)) ? true : false);
    10a2:	80 91 e8 00 	lds	r24, 0x00E8
	  return ENDPOINT_RWSTREAM_DeviceDisconnected;

	Endpoint_SelectEndpoint(CDCInterfaceInfo->Config.DataINEndpoint.Address);

	if (!(Endpoint_IsReadWriteAllowed()))
    10a6:	85 fd       	sbrc	r24, 5
    10a8:	08 c0       	rjmp	.+16     	; 0x10ba <CDC_Device_SendByte+0x3e>
			 */
			static inline void Endpoint_ClearIN(void) ATTR_ALWAYS_INLINE;
			static inline void Endpoint_ClearIN(void)
			{
				#if !defined(CONTROL_ONLY_DEVICE)
					UEINTX &= ~((1 << TXINI) | (1 << FIFOCON));
    10aa:	80 91 e8 00 	lds	r24, 0x00E8
    10ae:	8e 77       	andi	r24, 0x7E	; 126
    10b0:	80 93 e8 00 	sts	0x00E8, r24
	{
		Endpoint_ClearIN();

		uint8_t ErrorCode;

		if ((ErrorCode = Endpoint_WaitUntilReady()) != ENDPOINT_READYWAIT_NoError)
    10b4:	e5 db       	rcall	.-2102   	; 0x880 <Endpoint_WaitUntilReady>
    10b6:	88 23       	and	r24, r24
    10b8:	29 f4       	brne	.+10     	; 0x10c4 <CDC_Device_SendByte+0x48>
    10ba:	c0 93 f1 00 	sts	0x00F1, r28
			 *  \param[in] Data  Data to write into the the currently selected endpoint's FIFO buffer.
			 */
			static inline void Endpoint_Write_8(const uint8_t Data) ATTR_ALWAYS_INLINE;
			static inline void Endpoint_Write_8(const uint8_t Data)
			{
				UEDATX = Data;
    10be:	80 e0       	ldi	r24, 0x00	; 0
		  return ErrorCode;
	}

	Endpoint_Write_8(Data);
	return ENDPOINT_READYWAIT_NoError;
    10c0:	01 c0       	rjmp	.+2      	; 0x10c4 <CDC_Device_SendByte+0x48>
    10c2:	82 e0       	ldi	r24, 0x02	; 2

uint8_t CDC_Device_SendByte(USB_ClassInfo_CDC_Device_t* const CDCInterfaceInfo,
                            const uint8_t Data)
{
	if ((USB_DeviceState != DEVICE_STATE_Configured) || !(CDCInterfaceInfo->State.LineEncoding.BaudRateBPS))
	  return ENDPOINT_RWSTREAM_DeviceDisconnected;
    10c4:	cf 91       	pop	r28
		  return ErrorCode;
	}

	Endpoint_Write_8(Data);
	return ENDPOINT_READYWAIT_NoError;
}
    10c6:	08 95       	ret

000010c8 <CDC_Device_putchar>:
    10c8:	28 2f       	mov	r18, r24
	fdev_set_udata(Stream, CDCInterfaceInfo);
}

static int CDC_Device_putchar(char c,
                              FILE* Stream)
{
    10ca:	fb 01       	movw	r30, r22
	return CDC_Device_SendByte((USB_ClassInfo_CDC_Device_t*)fdev_get_udata(Stream), c) ? _FDEV_ERR : 0;
    10cc:	84 85       	ldd	r24, Z+12	; 0x0c
    10ce:	95 85       	ldd	r25, Z+13	; 0x0d
    10d0:	62 2f       	mov	r22, r18
    10d2:	d4 df       	rcall	.-88     	; 0x107c <CDC_Device_SendByte>
    10d4:	88 23       	and	r24, r24
    10d6:	19 f0       	breq	.+6      	; 0x10de <CDC_Device_putchar+0x16>
    10d8:	8f ef       	ldi	r24, 0xFF	; 255
    10da:	9f ef       	ldi	r25, 0xFF	; 255
    10dc:	08 95       	ret
    10de:	80 e0       	ldi	r24, 0x00	; 0
    10e0:	90 e0       	ldi	r25, 0x00	; 0
    10e2:	08 95       	ret

000010e4 <CDC_Device_Flush>:
}
    10e4:	fc 01       	movw	r30, r24
	return ENDPOINT_READYWAIT_NoError;
}

uint8_t CDC_Device_Flush(USB_ClassInfo_CDC_Device_t* const CDCInterfaceInfo)
{
	if ((USB_DeviceState != DEVICE_STATE_Configured) || !(CDCInterfaceInfo->State.LineEncoding.BaudRateBPS))
    10e6:	8e b3       	in	r24, 0x1e	; 30
    10e8:	84 30       	cpi	r24, 0x04	; 4
    10ea:	51 f5       	brne	.+84     	; 0x1140 <CDC_Device_Flush+0x5c>
    10ec:	44 89       	ldd	r20, Z+20	; 0x14
    10ee:	55 89       	ldd	r21, Z+21	; 0x15
    10f0:	66 89       	ldd	r22, Z+22	; 0x16
    10f2:	77 89       	ldd	r23, Z+23	; 0x17
    10f4:	41 15       	cp	r20, r1
    10f6:	51 05       	cpc	r21, r1
    10f8:	61 05       	cpc	r22, r1
    10fa:	71 05       	cpc	r23, r1
    10fc:	09 f1       	breq	.+66     	; 0x1140 <CDC_Device_Flush+0x5c>
			 */
			static inline void Endpoint_SelectEndpoint(const uint8_t Address) ATTR_ALWAYS_INLINE;
			static inline void Endpoint_SelectEndpoint(const uint8_t Address)
			{
				#if !defined(CONTROL_ONLY_DEVICE)
					UENUM = (Address & ENDPOINT_EPNUM_MASK);
    10fe:	81 81       	ldd	r24, Z+1	; 0x01
    1100:	8f 70       	andi	r24, 0x0F	; 15
    1102:	80 93 e9 00 	sts	0x00E9, r24
			static inline uint16_t Endpoint_BytesInEndpoint(void)
			{
				#if (defined(USB_SERIES_6_AVR) || defined(USB_SERIES_7_AVR))
					return UEBCX;
				#elif defined(USB_SERIES_4_AVR)
					return (((uint16_t)UEBCHX << 8) | UEBCLX);
    1106:	90 91 f3 00 	lds	r25, 0x00F3
    110a:	80 91 f2 00 	lds	r24, 0x00F2
    110e:	39 2f       	mov	r19, r25
    1110:	20 e0       	ldi	r18, 0x00	; 0
    1112:	90 e0       	ldi	r25, 0x00	; 0
    1114:	82 2b       	or	r24, r18
    1116:	93 2b       	or	r25, r19

	uint8_t ErrorCode;

	Endpoint_SelectEndpoint(CDCInterfaceInfo->Config.DataINEndpoint.Address);

	if (!(Endpoint_BytesInEndpoint()))
    1118:	00 97       	sbiw	r24, 0x00	; 0
    111a:	a1 f0       	breq	.+40     	; 0x1144 <CDC_Device_Flush+0x60>
			 *          on its direction.
			 */
			static inline bool Endpoint_IsReadWriteAllowed(void) ATTR_WARN_UNUSED_RESULT ATTR_ALWAYS_INLINE;
			static inline bool Endpoint_IsReadWriteAllowed(void)
			{
				return ((UEINTX & (1 << RWAL)) ? true : false);
    111c:	90 91 e8 00 	lds	r25, 0x00E8
			 */
			static inline void Endpoint_ClearIN(void) ATTR_ALWAYS_INLINE;
			static inline void Endpoint_ClearIN(void)
			{
				#if !defined(CONTROL_ONLY_DEVICE)
					UEINTX &= ~((1 << TXINI) | (1 << FIFOCON));
    1120:	80 91 e8 00 	lds	r24, 0x00E8
    1124:	8e 77       	andi	r24, 0x7E	; 126
    1126:	80 93 e8 00 	sts	0x00E8, r24

	bool BankFull = !(Endpoint_IsReadWriteAllowed());

	Endpoint_ClearIN();

	if (BankFull)
    112a:	95 fd       	sbrc	r25, 5
    112c:	0d c0       	rjmp	.+26     	; 0x1148 <CDC_Device_Flush+0x64>
	{
		if ((ErrorCode = Endpoint_WaitUntilReady()) != ENDPOINT_READYWAIT_NoError)
    112e:	a8 db       	rcall	.-2224   	; 0x880 <Endpoint_WaitUntilReady>
    1130:	88 23       	and	r24, r24
    1132:	59 f4       	brne	.+22     	; 0x114a <CDC_Device_Flush+0x66>
    1134:	90 91 e8 00 	lds	r25, 0x00E8
    1138:	9e 77       	andi	r25, 0x7E	; 126
    113a:	90 93 e8 00 	sts	0x00E8, r25
    113e:	08 95       	ret
    1140:	82 e0       	ldi	r24, 0x02	; 2
}

uint8_t CDC_Device_Flush(USB_ClassInfo_CDC_Device_t* const CDCInterfaceInfo)
{
	if ((USB_DeviceState != DEVICE_STATE_Configured) || !(CDCInterfaceInfo->State.LineEncoding.BaudRateBPS))
	  return ENDPOINT_RWSTREAM_DeviceDisconnected;
    1142:	08 95       	ret
    1144:	80 e0       	ldi	r24, 0x00	; 0
	uint8_t ErrorCode;

	Endpoint_SelectEndpoint(CDCInterfaceInfo->Config.DataINEndpoint.Address);

	if (!(Endpoint_BytesInEndpoint()))
	  return ENDPOINT_READYWAIT_NoError;
    1146:	08 95       	ret
    1148:	80 e0       	ldi	r24, 0x00	; 0
		  return ErrorCode;

		Endpoint_ClearIN();
	}

	return ENDPOINT_READYWAIT_NoError;
    114a:	08 95       	ret

0000114c <CDC_Device_USBTask>:
}
    114c:	2e b3       	in	r18, 0x1e	; 30
	return true;
}

void CDC_Device_USBTask(USB_ClassInfo_CDC_Device_t* const CDCInterfaceInfo)
{
	if ((USB_DeviceState != DEVICE_STATE_Configured) || !(CDCInterfaceInfo->State.LineEncoding.BaudRateBPS))
    114e:	24 30       	cpi	r18, 0x04	; 4
    1150:	99 f4       	brne	.+38     	; 0x1178 <CDC_Device_USBTask+0x2c>
    1152:	fc 01       	movw	r30, r24
    1154:	44 89       	ldd	r20, Z+20	; 0x14
    1156:	55 89       	ldd	r21, Z+21	; 0x15
    1158:	66 89       	ldd	r22, Z+22	; 0x16
    115a:	77 89       	ldd	r23, Z+23	; 0x17
    115c:	41 15       	cp	r20, r1
    115e:	51 05       	cpc	r21, r1
    1160:	61 05       	cpc	r22, r1
    1162:	71 05       	cpc	r23, r1
    1164:	49 f0       	breq	.+18     	; 0x1178 <CDC_Device_USBTask+0x2c>
			 */
			static inline void Endpoint_SelectEndpoint(const uint8_t Address) ATTR_ALWAYS_INLINE;
			static inline void Endpoint_SelectEndpoint(const uint8_t Address)
			{
				#if !defined(CONTROL_ONLY_DEVICE)
					UENUM = (Address & ENDPOINT_EPNUM_MASK);
    1166:	21 81       	ldd	r18, Z+1	; 0x01
    1168:	2f 70       	andi	r18, 0x0F	; 15
    116a:	20 93 e9 00 	sts	0x00E9, r18
			 *  \return Boolean \c true if the current endpoint is ready for an IN packet, \c false otherwise.
			 */
			static inline bool Endpoint_IsINReady(void) ATTR_WARN_UNUSED_RESULT ATTR_ALWAYS_INLINE;
			static inline bool Endpoint_IsINReady(void)
			{
				return ((UEINTX & (1 << TXINI)) ? true : false);
    116e:	20 91 e8 00 	lds	r18, 0x00E8
	  return;

	#if !defined(NO_CLASS_DRIVER_AUTOFLUSH)
	Endpoint_SelectEndpoint(CDCInterfaceInfo->Config.DataINEndpoint.Address);

	if (Endpoint_IsINReady())
    1172:	20 ff       	sbrs	r18, 0
    1174:	01 c0       	rjmp	.+2      	; 0x1178 <CDC_Device_USBTask+0x2c>
	  CDC_Device_Flush(CDCInterfaceInfo);
    1176:	b6 cf       	rjmp	.-148    	; 0x10e4 <CDC_Device_Flush>
    1178:	08 95       	ret

0000117a <CDC_Device_BytesReceived>:
    117a:	fc 01       	movw	r30, r24
	return ENDPOINT_READYWAIT_NoError;
}

uint16_t CDC_Device_BytesReceived(USB_ClassInfo_CDC_Device_t* const CDCInterfaceInfo)
{
	if ((USB_DeviceState != DEVICE_STATE_Configured) || !(CDCInterfaceInfo->State.LineEncoding.BaudRateBPS))
    117c:	8e b3       	in	r24, 0x1e	; 30
    117e:	84 30       	cpi	r24, 0x04	; 4
    1180:	61 f5       	brne	.+88     	; 0x11da <CDC_Device_BytesReceived+0x60>
    1182:	44 89       	ldd	r20, Z+20	; 0x14
    1184:	55 89       	ldd	r21, Z+21	; 0x15
    1186:	66 89       	ldd	r22, Z+22	; 0x16
    1188:	77 89       	ldd	r23, Z+23	; 0x17
    118a:	41 15       	cp	r20, r1
    118c:	51 05       	cpc	r21, r1
    118e:	61 05       	cpc	r22, r1
    1190:	71 05       	cpc	r23, r1
    1192:	19 f1       	breq	.+70     	; 0x11da <CDC_Device_BytesReceived+0x60>
			 */
			static inline void Endpoint_SelectEndpoint(const uint8_t Address) ATTR_ALWAYS_INLINE;
			static inline void Endpoint_SelectEndpoint(const uint8_t Address)
			{
				#if !defined(CONTROL_ONLY_DEVICE)
					UENUM = (Address & ENDPOINT_EPNUM_MASK);
    1194:	86 81       	ldd	r24, Z+6	; 0x06
    1196:	8f 70       	andi	r24, 0x0F	; 15
    1198:	80 93 e9 00 	sts	0x00E9, r24
			 *  \return Boolean \c true if current endpoint is has received an OUT packet, \c false otherwise.
			 */
			static inline bool Endpoint_IsOUTReceived(void) ATTR_WARN_UNUSED_RESULT ATTR_ALWAYS_INLINE;
			static inline bool Endpoint_IsOUTReceived(void)
			{
				return ((UEINTX & (1 << RXOUTI)) ? true : false);
    119c:	80 91 e8 00 	lds	r24, 0x00E8
	  return 0;

	Endpoint_SelectEndpoint(CDCInterfaceInfo->Config.DataOUTEndpoint.Address);

	if (Endpoint_IsOUTReceived())
    11a0:	82 ff       	sbrs	r24, 2
    11a2:	1e c0       	rjmp	.+60     	; 0x11e0 <CDC_Device_BytesReceived+0x66>
			static inline uint16_t Endpoint_BytesInEndpoint(void)
			{
				#if (defined(USB_SERIES_6_AVR) || defined(USB_SERIES_7_AVR))
					return UEBCX;
				#elif defined(USB_SERIES_4_AVR)
					return (((uint16_t)UEBCHX << 8) | UEBCLX);
    11a4:	90 91 f3 00 	lds	r25, 0x00F3
    11a8:	80 91 f2 00 	lds	r24, 0x00F2
    11ac:	39 2f       	mov	r19, r25
    11ae:	20 e0       	ldi	r18, 0x00	; 0
    11b0:	90 e0       	ldi	r25, 0x00	; 0
    11b2:	82 2b       	or	r24, r18
    11b4:	93 2b       	or	r25, r19
	{
		if (!(Endpoint_BytesInEndpoint()))
    11b6:	00 97       	sbiw	r24, 0x00	; 0
    11b8:	31 f4       	brne	.+12     	; 0x11c6 <CDC_Device_BytesReceived+0x4c>
			 */
			static inline void Endpoint_ClearOUT(void) ATTR_ALWAYS_INLINE;
			static inline void Endpoint_ClearOUT(void)
			{
				#if !defined(CONTROL_ONLY_DEVICE)
					UEINTX &= ~((1 << RXOUTI) | (1 << FIFOCON));
    11ba:	80 91 e8 00 	lds	r24, 0x00E8
    11be:	8b 77       	andi	r24, 0x7B	; 123
    11c0:	80 93 e8 00 	sts	0x00E8, r24
    11c4:	0a c0       	rjmp	.+20     	; 0x11da <CDC_Device_BytesReceived+0x60>
			static inline uint16_t Endpoint_BytesInEndpoint(void)
			{
				#if (defined(USB_SERIES_6_AVR) || defined(USB_SERIES_7_AVR))
					return UEBCX;
				#elif defined(USB_SERIES_4_AVR)
					return (((uint16_t)UEBCHX << 8) | UEBCLX);
    11c6:	90 91 f3 00 	lds	r25, 0x00F3
    11ca:	80 91 f2 00 	lds	r24, 0x00F2
    11ce:	39 2f       	mov	r19, r25
    11d0:	20 e0       	ldi	r18, 0x00	; 0
    11d2:	90 e0       	ldi	r25, 0x00	; 0
    11d4:	82 2b       	or	r24, r18
    11d6:	93 2b       	or	r25, r19
			Endpoint_ClearOUT();
			return 0;
		}
		else
		{
			return Endpoint_BytesInEndpoint();
    11d8:	08 95       	ret
}

uint16_t CDC_Device_BytesReceived(USB_ClassInfo_CDC_Device_t* const CDCInterfaceInfo)
{
	if ((USB_DeviceState != DEVICE_STATE_Configured) || !(CDCInterfaceInfo->State.LineEncoding.BaudRateBPS))
	  return 0;
    11da:	80 e0       	ldi	r24, 0x00	; 0
    11dc:	90 e0       	ldi	r25, 0x00	; 0
    11de:	08 95       	ret
			return Endpoint_BytesInEndpoint();
		}
	}
	else
	{
		return 0;
    11e0:	80 e0       	ldi	r24, 0x00	; 0
    11e2:	90 e0       	ldi	r25, 0x00	; 0
	}
}
    11e4:	08 95       	ret

000011e6 <CDC_Device_ReceiveByte>:

int16_t CDC_Device_ReceiveByte(USB_ClassInfo_CDC_Device_t* const CDCInterfaceInfo)
{
    11e6:	fc 01       	movw	r30, r24
	if ((USB_DeviceState != DEVICE_STATE_Configured) || !(CDCInterfaceInfo->State.LineEncoding.BaudRateBPS))
    11e8:	8e b3       	in	r24, 0x1e	; 30
    11ea:	84 30       	cpi	r24, 0x04	; 4
    11ec:	a1 f5       	brne	.+104    	; 0x1256 <CDC_Device_ReceiveByte+0x70>
    11ee:	44 89       	ldd	r20, Z+20	; 0x14
    11f0:	55 89       	ldd	r21, Z+21	; 0x15
    11f2:	66 89       	ldd	r22, Z+22	; 0x16
    11f4:	77 89       	ldd	r23, Z+23	; 0x17
    11f6:	41 15       	cp	r20, r1
    11f8:	51 05       	cpc	r21, r1
    11fa:	61 05       	cpc	r22, r1
    11fc:	71 05       	cpc	r23, r1
    11fe:	59 f1       	breq	.+86     	; 0x1256 <CDC_Device_ReceiveByte+0x70>
			 */
			static inline void Endpoint_SelectEndpoint(const uint8_t Address) ATTR_ALWAYS_INLINE;
			static inline void Endpoint_SelectEndpoint(const uint8_t Address)
			{
				#if !defined(CONTROL_ONLY_DEVICE)
					UENUM = (Address & ENDPOINT_EPNUM_MASK);
    1200:	86 81       	ldd	r24, Z+6	; 0x06
    1202:	8f 70       	andi	r24, 0x0F	; 15
    1204:	80 93 e9 00 	sts	0x00E9, r24
			 *  \return Boolean \c true if current endpoint is has received an OUT packet, \c false otherwise.
			 */
			static inline bool Endpoint_IsOUTReceived(void) ATTR_WARN_UNUSED_RESULT ATTR_ALWAYS_INLINE;
			static inline bool Endpoint_IsOUTReceived(void)
			{
				return ((UEINTX & (1 << RXOUTI)) ? true : false);
    1208:	80 91 e8 00 	lds	r24, 0x00E8

	int16_t ReceivedByte = -1;

	Endpoint_SelectEndpoint(CDCInterfaceInfo->Config.DataOUTEndpoint.Address);

	if (Endpoint_IsOUTReceived())
    120c:	82 ff       	sbrs	r24, 2
    120e:	26 c0       	rjmp	.+76     	; 0x125c <CDC_Device_ReceiveByte+0x76>
			static inline uint16_t Endpoint_BytesInEndpoint(void)
			{
				#if (defined(USB_SERIES_6_AVR) || defined(USB_SERIES_7_AVR))
					return UEBCX;
				#elif defined(USB_SERIES_4_AVR)
					return (((uint16_t)UEBCHX << 8) | UEBCLX);
    1210:	90 91 f3 00 	lds	r25, 0x00F3
    1214:	80 91 f2 00 	lds	r24, 0x00F2
    1218:	39 2f       	mov	r19, r25
    121a:	20 e0       	ldi	r18, 0x00	; 0
    121c:	90 e0       	ldi	r25, 0x00	; 0
    121e:	82 2b       	or	r24, r18
    1220:	93 2b       	or	r25, r19
	{
		if (Endpoint_BytesInEndpoint())
    1222:	00 97       	sbiw	r24, 0x00	; 0
    1224:	21 f0       	breq	.+8      	; 0x122e <CDC_Device_ReceiveByte+0x48>
			 *  \return Next byte in the currently selected endpoint's FIFO buffer.
			 */
			static inline uint8_t Endpoint_Read_8(void) ATTR_WARN_UNUSED_RESULT ATTR_ALWAYS_INLINE;
			static inline uint8_t Endpoint_Read_8(void)
			{
				return UEDATX;
    1226:	80 91 f1 00 	lds	r24, 0x00F1
		  ReceivedByte = Endpoint_Read_8();
    122a:	90 e0       	ldi	r25, 0x00	; 0
    122c:	02 c0       	rjmp	.+4      	; 0x1232 <CDC_Device_ReceiveByte+0x4c>
int16_t CDC_Device_ReceiveByte(USB_ClassInfo_CDC_Device_t* const CDCInterfaceInfo)
{
	if ((USB_DeviceState != DEVICE_STATE_Configured) || !(CDCInterfaceInfo->State.LineEncoding.BaudRateBPS))
	  return -1;

	int16_t ReceivedByte = -1;
    122e:	8f ef       	ldi	r24, 0xFF	; 255
    1230:	9f ef       	ldi	r25, 0xFF	; 255
			static inline uint16_t Endpoint_BytesInEndpoint(void)
			{
				#if (defined(USB_SERIES_6_AVR) || defined(USB_SERIES_7_AVR))
					return UEBCX;
				#elif defined(USB_SERIES_4_AVR)
					return (((uint16_t)UEBCHX << 8) | UEBCLX);
    1232:	30 91 f3 00 	lds	r19, 0x00F3
    1236:	20 91 f2 00 	lds	r18, 0x00F2
    123a:	53 2f       	mov	r21, r19
    123c:	40 e0       	ldi	r20, 0x00	; 0
    123e:	30 e0       	ldi	r19, 0x00	; 0
    1240:	24 2b       	or	r18, r20
    1242:	35 2b       	or	r19, r21
	if (Endpoint_IsOUTReceived())
	{
		if (Endpoint_BytesInEndpoint())
		  ReceivedByte = Endpoint_Read_8();

		if (!(Endpoint_BytesInEndpoint()))
    1244:	21 15       	cp	r18, r1
    1246:	31 05       	cpc	r19, r1
    1248:	59 f4       	brne	.+22     	; 0x1260 <CDC_Device_ReceiveByte+0x7a>
			 */
			static inline void Endpoint_ClearOUT(void) ATTR_ALWAYS_INLINE;
			static inline void Endpoint_ClearOUT(void)
			{
				#if !defined(CONTROL_ONLY_DEVICE)
					UEINTX &= ~((1 << RXOUTI) | (1 << FIFOCON));
    124a:	20 91 e8 00 	lds	r18, 0x00E8
    124e:	2b 77       	andi	r18, 0x7B	; 123
    1250:	20 93 e8 00 	sts	0x00E8, r18
    1254:	08 95       	ret
}

int16_t CDC_Device_ReceiveByte(USB_ClassInfo_CDC_Device_t* const CDCInterfaceInfo)
{
	if ((USB_DeviceState != DEVICE_STATE_Configured) || !(CDCInterfaceInfo->State.LineEncoding.BaudRateBPS))
	  return -1;
    1256:	8f ef       	ldi	r24, 0xFF	; 255
    1258:	9f ef       	ldi	r25, 0xFF	; 255
    125a:	08 95       	ret

	int16_t ReceivedByte = -1;
    125c:	8f ef       	ldi	r24, 0xFF	; 255
    125e:	9f ef       	ldi	r25, 0xFF	; 255
		if (!(Endpoint_BytesInEndpoint()))
		  Endpoint_ClearOUT();
	}

	return ReceivedByte;
}
    1260:	08 95       	ret

00001262 <CDC_Device_getchar>:
	return CDC_Device_SendByte((USB_ClassInfo_CDC_Device_t*)fdev_get_udata(Stream), c) ? _FDEV_ERR : 0;
}

static int CDC_Device_getchar(FILE* Stream)
{
	int16_t ReceivedByte = CDC_Device_ReceiveByte((USB_ClassInfo_CDC_Device_t*)fdev_get_udata(Stream));
    1262:	fc 01       	movw	r30, r24
    1264:	84 85       	ldd	r24, Z+12	; 0x0c
    1266:	95 85       	ldd	r25, Z+13	; 0x0d
    1268:	be df       	rcall	.-132    	; 0x11e6 <CDC_Device_ReceiveByte>
    126a:	97 ff       	sbrs	r25, 7

	if (ReceivedByte < 0)
    126c:	02 c0       	rjmp	.+4      	; 0x1272 <CDC_Device_getchar+0x10>
    126e:	8e ef       	ldi	r24, 0xFE	; 254
	  return _FDEV_EOF;
    1270:	9f ef       	ldi	r25, 0xFF	; 255
    1272:	08 95       	ret

00001274 <CDC_Device_CreateStream>:

	return ReceivedByte;
}
    1274:	fb 01       	movw	r30, r22

#if defined(FDEV_SETUP_STREAM)
void CDC_Device_CreateStream(USB_ClassInfo_CDC_Device_t* const CDCInterfaceInfo,
                             FILE* const Stream)
{
	*Stream = (FILE)FDEV_SETUP_STREAM(CDC_Device_putchar, CDC_Device_getchar, _FDEV_SETUP_RW);
    1276:	2e e0       	ldi	r18, 0x0E	; 14
    1278:	db 01       	movw	r26, r22
    127a:	1d 92       	st	X+, r1
    127c:	2a 95       	dec	r18
    127e:	e9 f7       	brne	.-6      	; 0x127a <CDC_Device_CreateStream+0x6>
    1280:	23 e0       	ldi	r18, 0x03	; 3
    1282:	23 83       	std	Z+3, r18	; 0x03
    1284:	24 e6       	ldi	r18, 0x64	; 100
    1286:	38 e0       	ldi	r19, 0x08	; 8
    1288:	31 87       	std	Z+9, r19	; 0x09
    128a:	20 87       	std	Z+8, r18	; 0x08
    128c:	21 e3       	ldi	r18, 0x31	; 49
    128e:	39 e0       	ldi	r19, 0x09	; 9
    1290:	33 87       	std	Z+11, r19	; 0x0b
    1292:	22 87       	std	Z+10, r18	; 0x0a
	fdev_set_udata(Stream, CDCInterfaceInfo);
    1294:	95 87       	std	Z+13, r25	; 0x0d
    1296:	84 87       	std	Z+12, r24	; 0x0c
}
    1298:	08 95       	ret

0000129a <CDC_Device_Event_Stub>:
#endif

void CDC_Device_Event_Stub(void)
{

}
    129a:	08 95       	ret

0000129c <__udivmodsi4>:
    129c:	a1 e2       	ldi	r26, 0x21	; 33
    129e:	1a 2e       	mov	r1, r26
    12a0:	aa 1b       	sub	r26, r26
    12a2:	bb 1b       	sub	r27, r27
    12a4:	fd 01       	movw	r30, r26
    12a6:	0d c0       	rjmp	.+26     	; 0x12c2 <__udivmodsi4_ep>

000012a8 <__udivmodsi4_loop>:
    12a8:	aa 1f       	adc	r26, r26
    12aa:	bb 1f       	adc	r27, r27
    12ac:	ee 1f       	adc	r30, r30
    12ae:	ff 1f       	adc	r31, r31
    12b0:	a2 17       	cp	r26, r18
    12b2:	b3 07       	cpc	r27, r19
    12b4:	e4 07       	cpc	r30, r20
    12b6:	f5 07       	cpc	r31, r21
    12b8:	20 f0       	brcs	.+8      	; 0x12c2 <__udivmodsi4_ep>
    12ba:	a2 1b       	sub	r26, r18
    12bc:	b3 0b       	sbc	r27, r19
    12be:	e4 0b       	sbc	r30, r20
    12c0:	f5 0b       	sbc	r31, r21

000012c2 <__udivmodsi4_ep>:
    12c2:	66 1f       	adc	r22, r22
    12c4:	77 1f       	adc	r23, r23
    12c6:	88 1f       	adc	r24, r24
    12c8:	99 1f       	adc	r25, r25
    12ca:	1a 94       	dec	r1
    12cc:	69 f7       	brne	.-38     	; 0x12a8 <__udivmodsi4_loop>
    12ce:	60 95       	com	r22
    12d0:	70 95       	com	r23
    12d2:	80 95       	com	r24
    12d4:	90 95       	com	r25
    12d6:	9b 01       	movw	r18, r22
    12d8:	ac 01       	movw	r20, r24
    12da:	bd 01       	movw	r22, r26
    12dc:	cf 01       	movw	r24, r30
    12de:	08 95       	ret

000012e0 <strncmp>:
    12e0:	fb 01       	movw	r30, r22
    12e2:	dc 01       	movw	r26, r24
    12e4:	41 50       	subi	r20, 0x01	; 1
    12e6:	50 40       	sbci	r21, 0x00	; 0
    12e8:	30 f0       	brcs	.+12     	; 0x12f6 <strncmp+0x16>
    12ea:	8d 91       	ld	r24, X+
    12ec:	01 90       	ld	r0, Z+
    12ee:	80 19       	sub	r24, r0
    12f0:	19 f4       	brne	.+6      	; 0x12f8 <strncmp+0x18>
    12f2:	00 20       	and	r0, r0
    12f4:	b9 f7       	brne	.-18     	; 0x12e4 <strncmp+0x4>
    12f6:	88 1b       	sub	r24, r24
    12f8:	99 0b       	sbc	r25, r25
    12fa:	08 95       	ret

000012fc <strncpy>:
    12fc:	fb 01       	movw	r30, r22
    12fe:	dc 01       	movw	r26, r24
    1300:	41 50       	subi	r20, 0x01	; 1
    1302:	50 40       	sbci	r21, 0x00	; 0
    1304:	48 f0       	brcs	.+18     	; 0x1318 <strncpy+0x1c>
    1306:	01 90       	ld	r0, Z+
    1308:	0d 92       	st	X+, r0
    130a:	00 20       	and	r0, r0
    130c:	c9 f7       	brne	.-14     	; 0x1300 <strncpy+0x4>
    130e:	01 c0       	rjmp	.+2      	; 0x1312 <strncpy+0x16>
    1310:	1d 92       	st	X+, r1
    1312:	41 50       	subi	r20, 0x01	; 1
    1314:	50 40       	sbci	r21, 0x00	; 0
    1316:	e0 f7       	brcc	.-8      	; 0x1310 <strncpy+0x14>
    1318:	08 95       	ret

0000131a <fprintf>:
    131a:	a0 e0       	ldi	r26, 0x00	; 0
    131c:	b0 e0       	ldi	r27, 0x00	; 0
    131e:	e2 e9       	ldi	r30, 0x92	; 146
    1320:	f9 e0       	ldi	r31, 0x09	; 9
    1322:	ad c2       	rjmp	.+1370   	; 0x187e <__prologue_saves__+0x20>
    1324:	ae 01       	movw	r20, r28
    1326:	47 5f       	subi	r20, 0xF7	; 247
    1328:	5f 4f       	sbci	r21, 0xFF	; 255
    132a:	8d 81       	ldd	r24, Y+5	; 0x05
    132c:	9e 81       	ldd	r25, Y+6	; 0x06
    132e:	6f 81       	ldd	r22, Y+7	; 0x07
    1330:	78 85       	ldd	r23, Y+8	; 0x08
    1332:	26 d0       	rcall	.+76     	; 0x1380 <vfprintf>
    1334:	20 96       	adiw	r28, 0x00	; 0
    1336:	e2 e0       	ldi	r30, 0x02	; 2
    1338:	be c2       	rjmp	.+1404   	; 0x18b6 <__epilogue_restores__+0x20>

0000133a <fputs>:
    133a:	ef 92       	push	r14
    133c:	ff 92       	push	r15
    133e:	0f 93       	push	r16
    1340:	1f 93       	push	r17
    1342:	cf 93       	push	r28
    1344:	df 93       	push	r29
    1346:	7c 01       	movw	r14, r24
    1348:	eb 01       	movw	r28, r22
    134a:	8b 81       	ldd	r24, Y+3	; 0x03
    134c:	81 ff       	sbrs	r24, 1
    134e:	11 c0       	rjmp	.+34     	; 0x1372 <fputs+0x38>
    1350:	00 e0       	ldi	r16, 0x00	; 0
    1352:	10 e0       	ldi	r17, 0x00	; 0
    1354:	08 c0       	rjmp	.+16     	; 0x1366 <fputs+0x2c>
    1356:	e8 85       	ldd	r30, Y+8	; 0x08
    1358:	f9 85       	ldd	r31, Y+9	; 0x09
    135a:	be 01       	movw	r22, r28
    135c:	09 95       	icall
    135e:	00 97       	sbiw	r24, 0x00	; 0
    1360:	11 f0       	breq	.+4      	; 0x1366 <fputs+0x2c>
    1362:	0f ef       	ldi	r16, 0xFF	; 255
    1364:	1f ef       	ldi	r17, 0xFF	; 255
    1366:	f7 01       	movw	r30, r14
    1368:	81 91       	ld	r24, Z+
    136a:	7f 01       	movw	r14, r30
    136c:	88 23       	and	r24, r24
    136e:	99 f7       	brne	.-26     	; 0x1356 <fputs+0x1c>
    1370:	02 c0       	rjmp	.+4      	; 0x1376 <fputs+0x3c>
    1372:	0f ef       	ldi	r16, 0xFF	; 255
    1374:	1f ef       	ldi	r17, 0xFF	; 255
    1376:	c8 01       	movw	r24, r16
    1378:	cd b7       	in	r28, 0x3d	; 61
    137a:	de b7       	in	r29, 0x3e	; 62
    137c:	e6 e0       	ldi	r30, 0x06	; 6
    137e:	97 c2       	rjmp	.+1326   	; 0x18ae <__epilogue_restores__+0x18>

00001380 <vfprintf>:
    1380:	ad e0       	ldi	r26, 0x0D	; 13
    1382:	b0 e0       	ldi	r27, 0x00	; 0
    1384:	e5 ec       	ldi	r30, 0xC5	; 197
    1386:	f9 e0       	ldi	r31, 0x09	; 9
    1388:	6a c2       	rjmp	.+1236   	; 0x185e <__prologue_saves__>
    138a:	3c 01       	movw	r6, r24
    138c:	7d 87       	std	Y+13, r23	; 0x0d
    138e:	6c 87       	std	Y+12, r22	; 0x0c
    1390:	5a 01       	movw	r10, r20
    1392:	fc 01       	movw	r30, r24
    1394:	17 82       	std	Z+7, r1	; 0x07
    1396:	16 82       	std	Z+6, r1	; 0x06
    1398:	83 81       	ldd	r24, Z+3	; 0x03
    139a:	81 ff       	sbrs	r24, 1
    139c:	bb c1       	rjmp	.+886    	; 0x1714 <vfprintf+0x394>
    139e:	2e 01       	movw	r4, r28
    13a0:	08 94       	sec
    13a2:	41 1c       	adc	r4, r1
    13a4:	51 1c       	adc	r5, r1
    13a6:	f3 01       	movw	r30, r6
    13a8:	93 81       	ldd	r25, Z+3	; 0x03
    13aa:	ec 85       	ldd	r30, Y+12	; 0x0c
    13ac:	fd 85       	ldd	r31, Y+13	; 0x0d
    13ae:	93 fd       	sbrc	r25, 3
    13b0:	85 91       	lpm	r24, Z+
    13b2:	93 ff       	sbrs	r25, 3
    13b4:	81 91       	ld	r24, Z+
    13b6:	fd 87       	std	Y+13, r31	; 0x0d
    13b8:	ec 87       	std	Y+12, r30	; 0x0c
    13ba:	88 23       	and	r24, r24
    13bc:	09 f4       	brne	.+2      	; 0x13c0 <vfprintf+0x40>
    13be:	a6 c1       	rjmp	.+844    	; 0x170c <vfprintf+0x38c>
    13c0:	85 32       	cpi	r24, 0x25	; 37
    13c2:	41 f4       	brne	.+16     	; 0x13d4 <vfprintf+0x54>
    13c4:	93 fd       	sbrc	r25, 3
    13c6:	85 91       	lpm	r24, Z+
    13c8:	93 ff       	sbrs	r25, 3
    13ca:	81 91       	ld	r24, Z+
    13cc:	fd 87       	std	Y+13, r31	; 0x0d
    13ce:	ec 87       	std	Y+12, r30	; 0x0c
    13d0:	85 32       	cpi	r24, 0x25	; 37
    13d2:	21 f4       	brne	.+8      	; 0x13dc <vfprintf+0x5c>
    13d4:	90 e0       	ldi	r25, 0x00	; 0
    13d6:	b3 01       	movw	r22, r6
    13d8:	b8 d1       	rcall	.+880    	; 0x174a <fputc>
    13da:	e5 cf       	rjmp	.-54     	; 0x13a6 <vfprintf+0x26>
    13dc:	ff 24       	eor	r15, r15
    13de:	ee 24       	eor	r14, r14
    13e0:	10 e0       	ldi	r17, 0x00	; 0
    13e2:	10 32       	cpi	r17, 0x20	; 32
    13e4:	b0 f4       	brcc	.+44     	; 0x1412 <vfprintf+0x92>
    13e6:	8b 32       	cpi	r24, 0x2B	; 43
    13e8:	69 f0       	breq	.+26     	; 0x1404 <vfprintf+0x84>
    13ea:	8c 32       	cpi	r24, 0x2C	; 44
    13ec:	28 f4       	brcc	.+10     	; 0x13f8 <vfprintf+0x78>
    13ee:	80 32       	cpi	r24, 0x20	; 32
    13f0:	51 f0       	breq	.+20     	; 0x1406 <vfprintf+0x86>
    13f2:	83 32       	cpi	r24, 0x23	; 35
    13f4:	71 f4       	brne	.+28     	; 0x1412 <vfprintf+0x92>
    13f6:	0b c0       	rjmp	.+22     	; 0x140e <vfprintf+0x8e>
    13f8:	8d 32       	cpi	r24, 0x2D	; 45
    13fa:	39 f0       	breq	.+14     	; 0x140a <vfprintf+0x8a>
    13fc:	80 33       	cpi	r24, 0x30	; 48
    13fe:	49 f4       	brne	.+18     	; 0x1412 <vfprintf+0x92>
    1400:	11 60       	ori	r17, 0x01	; 1
    1402:	2c c0       	rjmp	.+88     	; 0x145c <vfprintf+0xdc>
    1404:	12 60       	ori	r17, 0x02	; 2
    1406:	14 60       	ori	r17, 0x04	; 4
    1408:	29 c0       	rjmp	.+82     	; 0x145c <vfprintf+0xdc>
    140a:	18 60       	ori	r17, 0x08	; 8
    140c:	27 c0       	rjmp	.+78     	; 0x145c <vfprintf+0xdc>
    140e:	10 61       	ori	r17, 0x10	; 16
    1410:	25 c0       	rjmp	.+74     	; 0x145c <vfprintf+0xdc>
    1412:	17 fd       	sbrc	r17, 7
    1414:	2e c0       	rjmp	.+92     	; 0x1472 <vfprintf+0xf2>
    1416:	28 2f       	mov	r18, r24
    1418:	20 53       	subi	r18, 0x30	; 48
    141a:	2a 30       	cpi	r18, 0x0A	; 10
    141c:	98 f4       	brcc	.+38     	; 0x1444 <vfprintf+0xc4>
    141e:	16 ff       	sbrs	r17, 6
    1420:	08 c0       	rjmp	.+16     	; 0x1432 <vfprintf+0xb2>
    1422:	8f 2d       	mov	r24, r15
    1424:	88 0f       	add	r24, r24
    1426:	f8 2e       	mov	r15, r24
    1428:	ff 0c       	add	r15, r15
    142a:	ff 0c       	add	r15, r15
    142c:	f8 0e       	add	r15, r24
    142e:	f2 0e       	add	r15, r18
    1430:	15 c0       	rjmp	.+42     	; 0x145c <vfprintf+0xdc>
    1432:	8e 2d       	mov	r24, r14
    1434:	88 0f       	add	r24, r24
    1436:	e8 2e       	mov	r14, r24
    1438:	ee 0c       	add	r14, r14
    143a:	ee 0c       	add	r14, r14
    143c:	e8 0e       	add	r14, r24
    143e:	e2 0e       	add	r14, r18
    1440:	10 62       	ori	r17, 0x20	; 32
    1442:	0c c0       	rjmp	.+24     	; 0x145c <vfprintf+0xdc>
    1444:	8e 32       	cpi	r24, 0x2E	; 46
    1446:	21 f4       	brne	.+8      	; 0x1450 <vfprintf+0xd0>
    1448:	16 fd       	sbrc	r17, 6
    144a:	60 c1       	rjmp	.+704    	; 0x170c <vfprintf+0x38c>
    144c:	10 64       	ori	r17, 0x40	; 64
    144e:	06 c0       	rjmp	.+12     	; 0x145c <vfprintf+0xdc>
    1450:	8c 36       	cpi	r24, 0x6C	; 108
    1452:	11 f4       	brne	.+4      	; 0x1458 <vfprintf+0xd8>
    1454:	10 68       	ori	r17, 0x80	; 128
    1456:	02 c0       	rjmp	.+4      	; 0x145c <vfprintf+0xdc>
    1458:	88 36       	cpi	r24, 0x68	; 104
    145a:	59 f4       	brne	.+22     	; 0x1472 <vfprintf+0xf2>
    145c:	ec 85       	ldd	r30, Y+12	; 0x0c
    145e:	fd 85       	ldd	r31, Y+13	; 0x0d
    1460:	93 fd       	sbrc	r25, 3
    1462:	85 91       	lpm	r24, Z+
    1464:	93 ff       	sbrs	r25, 3
    1466:	81 91       	ld	r24, Z+
    1468:	fd 87       	std	Y+13, r31	; 0x0d
    146a:	ec 87       	std	Y+12, r30	; 0x0c
    146c:	88 23       	and	r24, r24
    146e:	09 f0       	breq	.+2      	; 0x1472 <vfprintf+0xf2>
    1470:	b8 cf       	rjmp	.-144    	; 0x13e2 <vfprintf+0x62>
    1472:	98 2f       	mov	r25, r24
    1474:	95 54       	subi	r25, 0x45	; 69
    1476:	93 30       	cpi	r25, 0x03	; 3
    1478:	18 f0       	brcs	.+6      	; 0x1480 <vfprintf+0x100>
    147a:	90 52       	subi	r25, 0x20	; 32
    147c:	93 30       	cpi	r25, 0x03	; 3
    147e:	38 f4       	brcc	.+14     	; 0x148e <vfprintf+0x10e>
    1480:	24 e0       	ldi	r18, 0x04	; 4
    1482:	30 e0       	ldi	r19, 0x00	; 0
    1484:	a2 0e       	add	r10, r18
    1486:	b3 1e       	adc	r11, r19
    1488:	3f e3       	ldi	r19, 0x3F	; 63
    148a:	39 83       	std	Y+1, r19	; 0x01
    148c:	0f c0       	rjmp	.+30     	; 0x14ac <vfprintf+0x12c>
    148e:	83 36       	cpi	r24, 0x63	; 99
    1490:	31 f0       	breq	.+12     	; 0x149e <vfprintf+0x11e>
    1492:	83 37       	cpi	r24, 0x73	; 115
    1494:	81 f0       	breq	.+32     	; 0x14b6 <vfprintf+0x136>
    1496:	83 35       	cpi	r24, 0x53	; 83
    1498:	09 f0       	breq	.+2      	; 0x149c <vfprintf+0x11c>
    149a:	56 c0       	rjmp	.+172    	; 0x1548 <vfprintf+0x1c8>
    149c:	21 c0       	rjmp	.+66     	; 0x14e0 <vfprintf+0x160>
    149e:	f5 01       	movw	r30, r10
    14a0:	80 81       	ld	r24, Z
    14a2:	89 83       	std	Y+1, r24	; 0x01
    14a4:	22 e0       	ldi	r18, 0x02	; 2
    14a6:	30 e0       	ldi	r19, 0x00	; 0
    14a8:	a2 0e       	add	r10, r18
    14aa:	b3 1e       	adc	r11, r19
    14ac:	21 e0       	ldi	r18, 0x01	; 1
    14ae:	c2 2e       	mov	r12, r18
    14b0:	d1 2c       	mov	r13, r1
    14b2:	42 01       	movw	r8, r4
    14b4:	13 c0       	rjmp	.+38     	; 0x14dc <vfprintf+0x15c>
    14b6:	92 e0       	ldi	r25, 0x02	; 2
    14b8:	29 2e       	mov	r2, r25
    14ba:	31 2c       	mov	r3, r1
    14bc:	2a 0c       	add	r2, r10
    14be:	3b 1c       	adc	r3, r11
    14c0:	f5 01       	movw	r30, r10
    14c2:	80 80       	ld	r8, Z
    14c4:	91 80       	ldd	r9, Z+1	; 0x01
    14c6:	16 ff       	sbrs	r17, 6
    14c8:	03 c0       	rjmp	.+6      	; 0x14d0 <vfprintf+0x150>
    14ca:	6f 2d       	mov	r22, r15
    14cc:	70 e0       	ldi	r23, 0x00	; 0
    14ce:	02 c0       	rjmp	.+4      	; 0x14d4 <vfprintf+0x154>
    14d0:	6f ef       	ldi	r22, 0xFF	; 255
    14d2:	7f ef       	ldi	r23, 0xFF	; 255
    14d4:	c4 01       	movw	r24, r8
    14d6:	2e d1       	rcall	.+604    	; 0x1734 <strnlen>
    14d8:	6c 01       	movw	r12, r24
    14da:	51 01       	movw	r10, r2
    14dc:	1f 77       	andi	r17, 0x7F	; 127
    14de:	14 c0       	rjmp	.+40     	; 0x1508 <vfprintf+0x188>
    14e0:	82 e0       	ldi	r24, 0x02	; 2
    14e2:	28 2e       	mov	r2, r24
    14e4:	31 2c       	mov	r3, r1
    14e6:	2a 0c       	add	r2, r10
    14e8:	3b 1c       	adc	r3, r11
    14ea:	f5 01       	movw	r30, r10
    14ec:	80 80       	ld	r8, Z
    14ee:	91 80       	ldd	r9, Z+1	; 0x01
    14f0:	16 ff       	sbrs	r17, 6
    14f2:	03 c0       	rjmp	.+6      	; 0x14fa <vfprintf+0x17a>
    14f4:	6f 2d       	mov	r22, r15
    14f6:	70 e0       	ldi	r23, 0x00	; 0
    14f8:	02 c0       	rjmp	.+4      	; 0x14fe <vfprintf+0x17e>
    14fa:	6f ef       	ldi	r22, 0xFF	; 255
    14fc:	7f ef       	ldi	r23, 0xFF	; 255
    14fe:	c4 01       	movw	r24, r8
    1500:	0e d1       	rcall	.+540    	; 0x171e <strnlen_P>
    1502:	6c 01       	movw	r12, r24
    1504:	10 68       	ori	r17, 0x80	; 128
    1506:	51 01       	movw	r10, r2
    1508:	13 fd       	sbrc	r17, 3
    150a:	1a c0       	rjmp	.+52     	; 0x1540 <vfprintf+0x1c0>
    150c:	05 c0       	rjmp	.+10     	; 0x1518 <vfprintf+0x198>
    150e:	80 e2       	ldi	r24, 0x20	; 32
    1510:	90 e0       	ldi	r25, 0x00	; 0
    1512:	b3 01       	movw	r22, r6
    1514:	1a d1       	rcall	.+564    	; 0x174a <fputc>
    1516:	ea 94       	dec	r14
    1518:	8e 2d       	mov	r24, r14
    151a:	90 e0       	ldi	r25, 0x00	; 0
    151c:	c8 16       	cp	r12, r24
    151e:	d9 06       	cpc	r13, r25
    1520:	b0 f3       	brcs	.-20     	; 0x150e <vfprintf+0x18e>
    1522:	0e c0       	rjmp	.+28     	; 0x1540 <vfprintf+0x1c0>
    1524:	f4 01       	movw	r30, r8
    1526:	17 fd       	sbrc	r17, 7
    1528:	85 91       	lpm	r24, Z+
    152a:	17 ff       	sbrs	r17, 7
    152c:	81 91       	ld	r24, Z+
    152e:	4f 01       	movw	r8, r30
    1530:	90 e0       	ldi	r25, 0x00	; 0
    1532:	b3 01       	movw	r22, r6
    1534:	0a d1       	rcall	.+532    	; 0x174a <fputc>
    1536:	e1 10       	cpse	r14, r1
    1538:	ea 94       	dec	r14
    153a:	08 94       	sec
    153c:	c1 08       	sbc	r12, r1
    153e:	d1 08       	sbc	r13, r1
    1540:	c1 14       	cp	r12, r1
    1542:	d1 04       	cpc	r13, r1
    1544:	79 f7       	brne	.-34     	; 0x1524 <vfprintf+0x1a4>
    1546:	df c0       	rjmp	.+446    	; 0x1706 <vfprintf+0x386>
    1548:	84 36       	cpi	r24, 0x64	; 100
    154a:	11 f0       	breq	.+4      	; 0x1550 <vfprintf+0x1d0>
    154c:	89 36       	cpi	r24, 0x69	; 105
    154e:	49 f5       	brne	.+82     	; 0x15a2 <vfprintf+0x222>
    1550:	f5 01       	movw	r30, r10
    1552:	17 ff       	sbrs	r17, 7
    1554:	07 c0       	rjmp	.+14     	; 0x1564 <vfprintf+0x1e4>
    1556:	80 81       	ld	r24, Z
    1558:	91 81       	ldd	r25, Z+1	; 0x01
    155a:	a2 81       	ldd	r26, Z+2	; 0x02
    155c:	b3 81       	ldd	r27, Z+3	; 0x03
    155e:	24 e0       	ldi	r18, 0x04	; 4
    1560:	30 e0       	ldi	r19, 0x00	; 0
    1562:	08 c0       	rjmp	.+16     	; 0x1574 <vfprintf+0x1f4>
    1564:	80 81       	ld	r24, Z
    1566:	91 81       	ldd	r25, Z+1	; 0x01
    1568:	aa 27       	eor	r26, r26
    156a:	97 fd       	sbrc	r25, 7
    156c:	a0 95       	com	r26
    156e:	ba 2f       	mov	r27, r26
    1570:	22 e0       	ldi	r18, 0x02	; 2
    1572:	30 e0       	ldi	r19, 0x00	; 0
    1574:	a2 0e       	add	r10, r18
    1576:	b3 1e       	adc	r11, r19
    1578:	01 2f       	mov	r16, r17
    157a:	0f 76       	andi	r16, 0x6F	; 111
    157c:	b7 ff       	sbrs	r27, 7
    157e:	08 c0       	rjmp	.+16     	; 0x1590 <vfprintf+0x210>
    1580:	b0 95       	com	r27
    1582:	a0 95       	com	r26
    1584:	90 95       	com	r25
    1586:	81 95       	neg	r24
    1588:	9f 4f       	sbci	r25, 0xFF	; 255
    158a:	af 4f       	sbci	r26, 0xFF	; 255
    158c:	bf 4f       	sbci	r27, 0xFF	; 255
    158e:	00 68       	ori	r16, 0x80	; 128
    1590:	bc 01       	movw	r22, r24
    1592:	cd 01       	movw	r24, r26
    1594:	a2 01       	movw	r20, r4
    1596:	2a e0       	ldi	r18, 0x0A	; 10
    1598:	30 e0       	ldi	r19, 0x00	; 0
    159a:	03 d1       	rcall	.+518    	; 0x17a2 <__ultoa_invert>
    159c:	d8 2e       	mov	r13, r24
    159e:	d4 18       	sub	r13, r4
    15a0:	3e c0       	rjmp	.+124    	; 0x161e <vfprintf+0x29e>
    15a2:	85 37       	cpi	r24, 0x75	; 117
    15a4:	21 f4       	brne	.+8      	; 0x15ae <vfprintf+0x22e>
    15a6:	1f 7e       	andi	r17, 0xEF	; 239
    15a8:	2a e0       	ldi	r18, 0x0A	; 10
    15aa:	30 e0       	ldi	r19, 0x00	; 0
    15ac:	20 c0       	rjmp	.+64     	; 0x15ee <vfprintf+0x26e>
    15ae:	19 7f       	andi	r17, 0xF9	; 249
    15b0:	8f 36       	cpi	r24, 0x6F	; 111
    15b2:	a9 f0       	breq	.+42     	; 0x15de <vfprintf+0x25e>
    15b4:	80 37       	cpi	r24, 0x70	; 112
    15b6:	20 f4       	brcc	.+8      	; 0x15c0 <vfprintf+0x240>
    15b8:	88 35       	cpi	r24, 0x58	; 88
    15ba:	09 f0       	breq	.+2      	; 0x15be <vfprintf+0x23e>
    15bc:	a7 c0       	rjmp	.+334    	; 0x170c <vfprintf+0x38c>
    15be:	0b c0       	rjmp	.+22     	; 0x15d6 <vfprintf+0x256>
    15c0:	80 37       	cpi	r24, 0x70	; 112
    15c2:	21 f0       	breq	.+8      	; 0x15cc <vfprintf+0x24c>
    15c4:	88 37       	cpi	r24, 0x78	; 120
    15c6:	09 f0       	breq	.+2      	; 0x15ca <vfprintf+0x24a>
    15c8:	a1 c0       	rjmp	.+322    	; 0x170c <vfprintf+0x38c>
    15ca:	01 c0       	rjmp	.+2      	; 0x15ce <vfprintf+0x24e>
    15cc:	10 61       	ori	r17, 0x10	; 16
    15ce:	14 ff       	sbrs	r17, 4
    15d0:	09 c0       	rjmp	.+18     	; 0x15e4 <vfprintf+0x264>
    15d2:	14 60       	ori	r17, 0x04	; 4
    15d4:	07 c0       	rjmp	.+14     	; 0x15e4 <vfprintf+0x264>
    15d6:	14 ff       	sbrs	r17, 4
    15d8:	08 c0       	rjmp	.+16     	; 0x15ea <vfprintf+0x26a>
    15da:	16 60       	ori	r17, 0x06	; 6
    15dc:	06 c0       	rjmp	.+12     	; 0x15ea <vfprintf+0x26a>
    15de:	28 e0       	ldi	r18, 0x08	; 8
    15e0:	30 e0       	ldi	r19, 0x00	; 0
    15e2:	05 c0       	rjmp	.+10     	; 0x15ee <vfprintf+0x26e>
    15e4:	20 e1       	ldi	r18, 0x10	; 16
    15e6:	30 e0       	ldi	r19, 0x00	; 0
    15e8:	02 c0       	rjmp	.+4      	; 0x15ee <vfprintf+0x26e>
    15ea:	20 e1       	ldi	r18, 0x10	; 16
    15ec:	32 e0       	ldi	r19, 0x02	; 2
    15ee:	f5 01       	movw	r30, r10
    15f0:	17 ff       	sbrs	r17, 7
    15f2:	07 c0       	rjmp	.+14     	; 0x1602 <vfprintf+0x282>
    15f4:	60 81       	ld	r22, Z
    15f6:	71 81       	ldd	r23, Z+1	; 0x01
    15f8:	82 81       	ldd	r24, Z+2	; 0x02
    15fa:	93 81       	ldd	r25, Z+3	; 0x03
    15fc:	44 e0       	ldi	r20, 0x04	; 4
    15fe:	50 e0       	ldi	r21, 0x00	; 0
    1600:	06 c0       	rjmp	.+12     	; 0x160e <vfprintf+0x28e>
    1602:	60 81       	ld	r22, Z
    1604:	71 81       	ldd	r23, Z+1	; 0x01
    1606:	80 e0       	ldi	r24, 0x00	; 0
    1608:	90 e0       	ldi	r25, 0x00	; 0
    160a:	42 e0       	ldi	r20, 0x02	; 2
    160c:	50 e0       	ldi	r21, 0x00	; 0
    160e:	a4 0e       	add	r10, r20
    1610:	b5 1e       	adc	r11, r21
    1612:	a2 01       	movw	r20, r4
    1614:	c6 d0       	rcall	.+396    	; 0x17a2 <__ultoa_invert>
    1616:	d8 2e       	mov	r13, r24
    1618:	d4 18       	sub	r13, r4
    161a:	01 2f       	mov	r16, r17
    161c:	0f 77       	andi	r16, 0x7F	; 127
    161e:	06 ff       	sbrs	r16, 6
    1620:	09 c0       	rjmp	.+18     	; 0x1634 <vfprintf+0x2b4>
    1622:	0e 7f       	andi	r16, 0xFE	; 254
    1624:	df 14       	cp	r13, r15
    1626:	30 f4       	brcc	.+12     	; 0x1634 <vfprintf+0x2b4>
    1628:	04 ff       	sbrs	r16, 4
    162a:	06 c0       	rjmp	.+12     	; 0x1638 <vfprintf+0x2b8>
    162c:	02 fd       	sbrc	r16, 2
    162e:	04 c0       	rjmp	.+8      	; 0x1638 <vfprintf+0x2b8>
    1630:	0f 7e       	andi	r16, 0xEF	; 239
    1632:	02 c0       	rjmp	.+4      	; 0x1638 <vfprintf+0x2b8>
    1634:	1d 2d       	mov	r17, r13
    1636:	01 c0       	rjmp	.+2      	; 0x163a <vfprintf+0x2ba>
    1638:	1f 2d       	mov	r17, r15
    163a:	80 2f       	mov	r24, r16
    163c:	90 e0       	ldi	r25, 0x00	; 0
    163e:	04 ff       	sbrs	r16, 4
    1640:	0c c0       	rjmp	.+24     	; 0x165a <vfprintf+0x2da>
    1642:	fe 01       	movw	r30, r28
    1644:	ed 0d       	add	r30, r13
    1646:	f1 1d       	adc	r31, r1
    1648:	20 81       	ld	r18, Z
    164a:	20 33       	cpi	r18, 0x30	; 48
    164c:	11 f4       	brne	.+4      	; 0x1652 <vfprintf+0x2d2>
    164e:	09 7e       	andi	r16, 0xE9	; 233
    1650:	09 c0       	rjmp	.+18     	; 0x1664 <vfprintf+0x2e4>
    1652:	02 ff       	sbrs	r16, 2
    1654:	06 c0       	rjmp	.+12     	; 0x1662 <vfprintf+0x2e2>
    1656:	1e 5f       	subi	r17, 0xFE	; 254
    1658:	05 c0       	rjmp	.+10     	; 0x1664 <vfprintf+0x2e4>
    165a:	86 78       	andi	r24, 0x86	; 134
    165c:	90 70       	andi	r25, 0x00	; 0
    165e:	00 97       	sbiw	r24, 0x00	; 0
    1660:	09 f0       	breq	.+2      	; 0x1664 <vfprintf+0x2e4>
    1662:	1f 5f       	subi	r17, 0xFF	; 255
    1664:	80 2e       	mov	r8, r16
    1666:	99 24       	eor	r9, r9
    1668:	03 fd       	sbrc	r16, 3
    166a:	11 c0       	rjmp	.+34     	; 0x168e <vfprintf+0x30e>
    166c:	00 ff       	sbrs	r16, 0
    166e:	0c c0       	rjmp	.+24     	; 0x1688 <vfprintf+0x308>
    1670:	fd 2c       	mov	r15, r13
    1672:	1e 15       	cp	r17, r14
    1674:	48 f4       	brcc	.+18     	; 0x1688 <vfprintf+0x308>
    1676:	fe 0c       	add	r15, r14
    1678:	f1 1a       	sub	r15, r17
    167a:	1e 2d       	mov	r17, r14
    167c:	05 c0       	rjmp	.+10     	; 0x1688 <vfprintf+0x308>
    167e:	80 e2       	ldi	r24, 0x20	; 32
    1680:	90 e0       	ldi	r25, 0x00	; 0
    1682:	b3 01       	movw	r22, r6
    1684:	62 d0       	rcall	.+196    	; 0x174a <fputc>
    1686:	1f 5f       	subi	r17, 0xFF	; 255
    1688:	1e 15       	cp	r17, r14
    168a:	c8 f3       	brcs	.-14     	; 0x167e <vfprintf+0x2fe>
    168c:	04 c0       	rjmp	.+8      	; 0x1696 <vfprintf+0x316>
    168e:	1e 15       	cp	r17, r14
    1690:	10 f4       	brcc	.+4      	; 0x1696 <vfprintf+0x316>
    1692:	e1 1a       	sub	r14, r17
    1694:	01 c0       	rjmp	.+2      	; 0x1698 <vfprintf+0x318>
    1696:	ee 24       	eor	r14, r14
    1698:	84 fe       	sbrs	r8, 4
    169a:	0e c0       	rjmp	.+28     	; 0x16b8 <vfprintf+0x338>
    169c:	80 e3       	ldi	r24, 0x30	; 48
    169e:	90 e0       	ldi	r25, 0x00	; 0
    16a0:	b3 01       	movw	r22, r6
    16a2:	53 d0       	rcall	.+166    	; 0x174a <fputc>
    16a4:	82 fe       	sbrs	r8, 2
    16a6:	1d c0       	rjmp	.+58     	; 0x16e2 <vfprintf+0x362>
    16a8:	81 fe       	sbrs	r8, 1
    16aa:	03 c0       	rjmp	.+6      	; 0x16b2 <vfprintf+0x332>
    16ac:	88 e5       	ldi	r24, 0x58	; 88
    16ae:	90 e0       	ldi	r25, 0x00	; 0
    16b0:	10 c0       	rjmp	.+32     	; 0x16d2 <vfprintf+0x352>
    16b2:	88 e7       	ldi	r24, 0x78	; 120
    16b4:	90 e0       	ldi	r25, 0x00	; 0
    16b6:	0d c0       	rjmp	.+26     	; 0x16d2 <vfprintf+0x352>
    16b8:	c4 01       	movw	r24, r8
    16ba:	86 78       	andi	r24, 0x86	; 134
    16bc:	90 70       	andi	r25, 0x00	; 0
    16be:	00 97       	sbiw	r24, 0x00	; 0
    16c0:	81 f0       	breq	.+32     	; 0x16e2 <vfprintf+0x362>
    16c2:	81 fc       	sbrc	r8, 1
    16c4:	02 c0       	rjmp	.+4      	; 0x16ca <vfprintf+0x34a>
    16c6:	80 e2       	ldi	r24, 0x20	; 32
    16c8:	01 c0       	rjmp	.+2      	; 0x16cc <vfprintf+0x34c>
    16ca:	8b e2       	ldi	r24, 0x2B	; 43
    16cc:	07 fd       	sbrc	r16, 7
    16ce:	8d e2       	ldi	r24, 0x2D	; 45
    16d0:	90 e0       	ldi	r25, 0x00	; 0
    16d2:	b3 01       	movw	r22, r6
    16d4:	3a d0       	rcall	.+116    	; 0x174a <fputc>
    16d6:	05 c0       	rjmp	.+10     	; 0x16e2 <vfprintf+0x362>
    16d8:	80 e3       	ldi	r24, 0x30	; 48
    16da:	90 e0       	ldi	r25, 0x00	; 0
    16dc:	b3 01       	movw	r22, r6
    16de:	35 d0       	rcall	.+106    	; 0x174a <fputc>
    16e0:	fa 94       	dec	r15
    16e2:	df 14       	cp	r13, r15
    16e4:	c8 f3       	brcs	.-14     	; 0x16d8 <vfprintf+0x358>
    16e6:	da 94       	dec	r13
    16e8:	f2 01       	movw	r30, r4
    16ea:	ed 0d       	add	r30, r13
    16ec:	f1 1d       	adc	r31, r1
    16ee:	80 81       	ld	r24, Z
    16f0:	90 e0       	ldi	r25, 0x00	; 0
    16f2:	b3 01       	movw	r22, r6
    16f4:	2a d0       	rcall	.+84     	; 0x174a <fputc>
    16f6:	dd 20       	and	r13, r13
    16f8:	b1 f7       	brne	.-20     	; 0x16e6 <vfprintf+0x366>
    16fa:	05 c0       	rjmp	.+10     	; 0x1706 <vfprintf+0x386>
    16fc:	80 e2       	ldi	r24, 0x20	; 32
    16fe:	90 e0       	ldi	r25, 0x00	; 0
    1700:	b3 01       	movw	r22, r6
    1702:	23 d0       	rcall	.+70     	; 0x174a <fputc>
    1704:	ea 94       	dec	r14
    1706:	ee 20       	and	r14, r14
    1708:	c9 f7       	brne	.-14     	; 0x16fc <vfprintf+0x37c>
    170a:	4d ce       	rjmp	.-870    	; 0x13a6 <vfprintf+0x26>
    170c:	f3 01       	movw	r30, r6
    170e:	86 81       	ldd	r24, Z+6	; 0x06
    1710:	97 81       	ldd	r25, Z+7	; 0x07
    1712:	02 c0       	rjmp	.+4      	; 0x1718 <vfprintf+0x398>
    1714:	8f ef       	ldi	r24, 0xFF	; 255
    1716:	9f ef       	ldi	r25, 0xFF	; 255
    1718:	2d 96       	adiw	r28, 0x0d	; 13
    171a:	e2 e1       	ldi	r30, 0x12	; 18
    171c:	bc c0       	rjmp	.+376    	; 0x1896 <__epilogue_restores__>

0000171e <strnlen_P>:
    171e:	fc 01       	movw	r30, r24
    1720:	05 90       	lpm	r0, Z+
    1722:	61 50       	subi	r22, 0x01	; 1
    1724:	70 40       	sbci	r23, 0x00	; 0
    1726:	01 10       	cpse	r0, r1
    1728:	d8 f7       	brcc	.-10     	; 0x1720 <strnlen_P+0x2>
    172a:	80 95       	com	r24
    172c:	90 95       	com	r25
    172e:	8e 0f       	add	r24, r30
    1730:	9f 1f       	adc	r25, r31
    1732:	08 95       	ret

00001734 <strnlen>:
    1734:	fc 01       	movw	r30, r24
    1736:	61 50       	subi	r22, 0x01	; 1
    1738:	70 40       	sbci	r23, 0x00	; 0
    173a:	01 90       	ld	r0, Z+
    173c:	01 10       	cpse	r0, r1
    173e:	d8 f7       	brcc	.-10     	; 0x1736 <strnlen+0x2>
    1740:	80 95       	com	r24
    1742:	90 95       	com	r25
    1744:	8e 0f       	add	r24, r30
    1746:	9f 1f       	adc	r25, r31
    1748:	08 95       	ret

0000174a <fputc>:
    174a:	0f 93       	push	r16
    174c:	1f 93       	push	r17
    174e:	cf 93       	push	r28
    1750:	df 93       	push	r29
    1752:	8c 01       	movw	r16, r24
    1754:	eb 01       	movw	r28, r22
    1756:	8b 81       	ldd	r24, Y+3	; 0x03
    1758:	81 ff       	sbrs	r24, 1
    175a:	1b c0       	rjmp	.+54     	; 0x1792 <fputc+0x48>
    175c:	82 ff       	sbrs	r24, 2
    175e:	0d c0       	rjmp	.+26     	; 0x177a <fputc+0x30>
    1760:	2e 81       	ldd	r18, Y+6	; 0x06
    1762:	3f 81       	ldd	r19, Y+7	; 0x07
    1764:	8c 81       	ldd	r24, Y+4	; 0x04
    1766:	9d 81       	ldd	r25, Y+5	; 0x05
    1768:	28 17       	cp	r18, r24
    176a:	39 07       	cpc	r19, r25
    176c:	64 f4       	brge	.+24     	; 0x1786 <fputc+0x3c>
    176e:	e8 81       	ld	r30, Y
    1770:	f9 81       	ldd	r31, Y+1	; 0x01
    1772:	01 93       	st	Z+, r16
    1774:	f9 83       	std	Y+1, r31	; 0x01
    1776:	e8 83       	st	Y, r30
    1778:	06 c0       	rjmp	.+12     	; 0x1786 <fputc+0x3c>
    177a:	e8 85       	ldd	r30, Y+8	; 0x08
    177c:	f9 85       	ldd	r31, Y+9	; 0x09
    177e:	80 2f       	mov	r24, r16
    1780:	09 95       	icall
    1782:	00 97       	sbiw	r24, 0x00	; 0
    1784:	31 f4       	brne	.+12     	; 0x1792 <fputc+0x48>
    1786:	8e 81       	ldd	r24, Y+6	; 0x06
    1788:	9f 81       	ldd	r25, Y+7	; 0x07
    178a:	01 96       	adiw	r24, 0x01	; 1
    178c:	9f 83       	std	Y+7, r25	; 0x07
    178e:	8e 83       	std	Y+6, r24	; 0x06
    1790:	02 c0       	rjmp	.+4      	; 0x1796 <fputc+0x4c>
    1792:	0f ef       	ldi	r16, 0xFF	; 255
    1794:	1f ef       	ldi	r17, 0xFF	; 255
    1796:	c8 01       	movw	r24, r16
    1798:	df 91       	pop	r29
    179a:	cf 91       	pop	r28
    179c:	1f 91       	pop	r17
    179e:	0f 91       	pop	r16
    17a0:	08 95       	ret

000017a2 <__ultoa_invert>:
    17a2:	fa 01       	movw	r30, r20
    17a4:	aa 27       	eor	r26, r26
    17a6:	28 30       	cpi	r18, 0x08	; 8
    17a8:	51 f1       	breq	.+84     	; 0x17fe <__ultoa_invert+0x5c>
    17aa:	20 31       	cpi	r18, 0x10	; 16
    17ac:	81 f1       	breq	.+96     	; 0x180e <__ultoa_invert+0x6c>
    17ae:	e8 94       	clt
    17b0:	6f 93       	push	r22
    17b2:	6e 7f       	andi	r22, 0xFE	; 254
    17b4:	6e 5f       	subi	r22, 0xFE	; 254
    17b6:	7f 4f       	sbci	r23, 0xFF	; 255
    17b8:	8f 4f       	sbci	r24, 0xFF	; 255
    17ba:	9f 4f       	sbci	r25, 0xFF	; 255
    17bc:	af 4f       	sbci	r26, 0xFF	; 255
    17be:	b1 e0       	ldi	r27, 0x01	; 1
    17c0:	3e d0       	rcall	.+124    	; 0x183e <__ultoa_invert+0x9c>
    17c2:	b4 e0       	ldi	r27, 0x04	; 4
    17c4:	3c d0       	rcall	.+120    	; 0x183e <__ultoa_invert+0x9c>
    17c6:	67 0f       	add	r22, r23
    17c8:	78 1f       	adc	r23, r24
    17ca:	89 1f       	adc	r24, r25
    17cc:	9a 1f       	adc	r25, r26
    17ce:	a1 1d       	adc	r26, r1
    17d0:	68 0f       	add	r22, r24
    17d2:	79 1f       	adc	r23, r25
    17d4:	8a 1f       	adc	r24, r26
    17d6:	91 1d       	adc	r25, r1
    17d8:	a1 1d       	adc	r26, r1
    17da:	6a 0f       	add	r22, r26
    17dc:	71 1d       	adc	r23, r1
    17de:	81 1d       	adc	r24, r1
    17e0:	91 1d       	adc	r25, r1
    17e2:	a1 1d       	adc	r26, r1
    17e4:	20 d0       	rcall	.+64     	; 0x1826 <__ultoa_invert+0x84>
    17e6:	09 f4       	brne	.+2      	; 0x17ea <__ultoa_invert+0x48>
    17e8:	68 94       	set
    17ea:	3f 91       	pop	r19
    17ec:	2a e0       	ldi	r18, 0x0A	; 10
    17ee:	26 9f       	mul	r18, r22
    17f0:	11 24       	eor	r1, r1
    17f2:	30 19       	sub	r19, r0
    17f4:	30 5d       	subi	r19, 0xD0	; 208
    17f6:	31 93       	st	Z+, r19
    17f8:	de f6       	brtc	.-74     	; 0x17b0 <__ultoa_invert+0xe>
    17fa:	cf 01       	movw	r24, r30
    17fc:	08 95       	ret
    17fe:	46 2f       	mov	r20, r22
    1800:	47 70       	andi	r20, 0x07	; 7
    1802:	40 5d       	subi	r20, 0xD0	; 208
    1804:	41 93       	st	Z+, r20
    1806:	b3 e0       	ldi	r27, 0x03	; 3
    1808:	0f d0       	rcall	.+30     	; 0x1828 <__ultoa_invert+0x86>
    180a:	c9 f7       	brne	.-14     	; 0x17fe <__ultoa_invert+0x5c>
    180c:	f6 cf       	rjmp	.-20     	; 0x17fa <__ultoa_invert+0x58>
    180e:	46 2f       	mov	r20, r22
    1810:	4f 70       	andi	r20, 0x0F	; 15
    1812:	40 5d       	subi	r20, 0xD0	; 208
    1814:	4a 33       	cpi	r20, 0x3A	; 58
    1816:	18 f0       	brcs	.+6      	; 0x181e <__ultoa_invert+0x7c>
    1818:	49 5d       	subi	r20, 0xD9	; 217
    181a:	31 fd       	sbrc	r19, 1
    181c:	40 52       	subi	r20, 0x20	; 32
    181e:	41 93       	st	Z+, r20
    1820:	02 d0       	rcall	.+4      	; 0x1826 <__ultoa_invert+0x84>
    1822:	a9 f7       	brne	.-22     	; 0x180e <__ultoa_invert+0x6c>
    1824:	ea cf       	rjmp	.-44     	; 0x17fa <__ultoa_invert+0x58>
    1826:	b4 e0       	ldi	r27, 0x04	; 4
    1828:	a6 95       	lsr	r26
    182a:	97 95       	ror	r25
    182c:	87 95       	ror	r24
    182e:	77 95       	ror	r23
    1830:	67 95       	ror	r22
    1832:	ba 95       	dec	r27
    1834:	c9 f7       	brne	.-14     	; 0x1828 <__ultoa_invert+0x86>
    1836:	00 97       	sbiw	r24, 0x00	; 0
    1838:	61 05       	cpc	r22, r1
    183a:	71 05       	cpc	r23, r1
    183c:	08 95       	ret
    183e:	9b 01       	movw	r18, r22
    1840:	ac 01       	movw	r20, r24
    1842:	0a 2e       	mov	r0, r26
    1844:	06 94       	lsr	r0
    1846:	57 95       	ror	r21
    1848:	47 95       	ror	r20
    184a:	37 95       	ror	r19
    184c:	27 95       	ror	r18
    184e:	ba 95       	dec	r27
    1850:	c9 f7       	brne	.-14     	; 0x1844 <__ultoa_invert+0xa2>
    1852:	62 0f       	add	r22, r18
    1854:	73 1f       	adc	r23, r19
    1856:	84 1f       	adc	r24, r20
    1858:	95 1f       	adc	r25, r21
    185a:	a0 1d       	adc	r26, r0
    185c:	08 95       	ret

0000185e <__prologue_saves__>:
    185e:	2f 92       	push	r2
    1860:	3f 92       	push	r3
    1862:	4f 92       	push	r4
    1864:	5f 92       	push	r5
    1866:	6f 92       	push	r6
    1868:	7f 92       	push	r7
    186a:	8f 92       	push	r8
    186c:	9f 92       	push	r9
    186e:	af 92       	push	r10
    1870:	bf 92       	push	r11
    1872:	cf 92       	push	r12
    1874:	df 92       	push	r13
    1876:	ef 92       	push	r14
    1878:	ff 92       	push	r15
    187a:	0f 93       	push	r16
    187c:	1f 93       	push	r17
    187e:	cf 93       	push	r28
    1880:	df 93       	push	r29
    1882:	cd b7       	in	r28, 0x3d	; 61
    1884:	de b7       	in	r29, 0x3e	; 62
    1886:	ca 1b       	sub	r28, r26
    1888:	db 0b       	sbc	r29, r27
    188a:	0f b6       	in	r0, 0x3f	; 63
    188c:	f8 94       	cli
    188e:	de bf       	out	0x3e, r29	; 62
    1890:	0f be       	out	0x3f, r0	; 63
    1892:	cd bf       	out	0x3d, r28	; 61
    1894:	09 94       	ijmp

00001896 <__epilogue_restores__>:
    1896:	2a 88       	ldd	r2, Y+18	; 0x12
    1898:	39 88       	ldd	r3, Y+17	; 0x11
    189a:	48 88       	ldd	r4, Y+16	; 0x10
    189c:	5f 84       	ldd	r5, Y+15	; 0x0f
    189e:	6e 84       	ldd	r6, Y+14	; 0x0e
    18a0:	7d 84       	ldd	r7, Y+13	; 0x0d
    18a2:	8c 84       	ldd	r8, Y+12	; 0x0c
    18a4:	9b 84       	ldd	r9, Y+11	; 0x0b
    18a6:	aa 84       	ldd	r10, Y+10	; 0x0a
    18a8:	b9 84       	ldd	r11, Y+9	; 0x09
    18aa:	c8 84       	ldd	r12, Y+8	; 0x08
    18ac:	df 80       	ldd	r13, Y+7	; 0x07
    18ae:	ee 80       	ldd	r14, Y+6	; 0x06
    18b0:	fd 80       	ldd	r15, Y+5	; 0x05
    18b2:	0c 81       	ldd	r16, Y+4	; 0x04
    18b4:	1b 81       	ldd	r17, Y+3	; 0x03
    18b6:	aa 81       	ldd	r26, Y+2	; 0x02
    18b8:	b9 81       	ldd	r27, Y+1	; 0x01
    18ba:	ce 0f       	add	r28, r30
    18bc:	d1 1d       	adc	r29, r1
    18be:	0f b6       	in	r0, 0x3f	; 63
    18c0:	f8 94       	cli
    18c2:	de bf       	out	0x3e, r29	; 62
    18c4:	0f be       	out	0x3f, r0	; 63
    18c6:	cd bf       	out	0x3d, r28	; 61
    18c8:	ed 01       	movw	r28, r26
    18ca:	08 95       	ret

000018cc <_exit>:
    18cc:	f8 94       	cli

000018ce <__stop_program>:
    18ce:	ff cf       	rjmp	.-2      	; 0x18ce <__stop_program>
