
AVRSerial.elf:     file format elf32-avr

Sections:
Idx Name          Size      VMA       LMA       File off  Algn
  0 .data         0000005e  00800100  00001862  000018f6  2**0
                  CONTENTS, ALLOC, LOAD, DATA
  1 .text         00001862  00000000  00000000  00000094  2**1
                  CONTENTS, ALLOC, LOAD, READONLY, CODE
  2 .bss          00000154  0080015e  0080015e  00001954  2**0
                  ALLOC
  3 .stab         000011dc  00000000  00000000  00001954  2**2
                  CONTENTS, READONLY, DEBUGGING
  4 .stabstr      0000047e  00000000  00000000  00002b30  2**0
                  CONTENTS, READONLY, DEBUGGING
  5 .debug_aranges 000005d8  00000000  00000000  00002fb0  2**3
                  CONTENTS, READONLY, DEBUGGING
  6 .debug_info   00009235  00000000  00000000  00003588  2**0
                  CONTENTS, READONLY, DEBUGGING
  7 .debug_abbrev 0000264d  00000000  00000000  0000c7bd  2**0
                  CONTENTS, READONLY, DEBUGGING
  8 .debug_line   00004060  00000000  00000000  0000ee0a  2**0
                  CONTENTS, READONLY, DEBUGGING
  9 .debug_frame  00000f34  00000000  00000000  00012e6c  2**2
                  CONTENTS, READONLY, DEBUGGING
 10 .debug_str    00003b03  00000000  00000000  00013da0  2**0
                  CONTENTS, READONLY, DEBUGGING
 11 .debug_loc    00005960  00000000  00000000  000178a3  2**0
                  CONTENTS, READONLY, DEBUGGING
 12 .debug_ranges 00000710  00000000  00000000  0001d203  2**0
                  CONTENTS, READONLY, DEBUGGING

Disassembly of section .text:

00000000 <__vectors>:
       0:	a4 c0       	rjmp	.+328    	; 0x14a <__ctors_end>
       2:	00 00       	nop
       4:	be c0       	rjmp	.+380    	; 0x182 <__bad_interrupt>
       6:	00 00       	nop
       8:	bc c0       	rjmp	.+376    	; 0x182 <__bad_interrupt>
       a:	00 00       	nop
       c:	ba c0       	rjmp	.+372    	; 0x182 <__bad_interrupt>
       e:	00 00       	nop
      10:	b8 c0       	rjmp	.+368    	; 0x182 <__bad_interrupt>
      12:	00 00       	nop
      14:	b6 c0       	rjmp	.+364    	; 0x182 <__bad_interrupt>
      16:	00 00       	nop
      18:	b4 c0       	rjmp	.+360    	; 0x182 <__bad_interrupt>
      1a:	00 00       	nop
      1c:	b2 c0       	rjmp	.+356    	; 0x182 <__bad_interrupt>
      1e:	00 00       	nop
      20:	b0 c0       	rjmp	.+352    	; 0x182 <__bad_interrupt>
      22:	00 00       	nop
      24:	ae c0       	rjmp	.+348    	; 0x182 <__bad_interrupt>
      26:	00 00       	nop
      28:	82 c4       	rjmp	.+2308   	; 0x92e <__vector_10>
      2a:	00 00       	nop
      2c:	44 c5       	rjmp	.+2696   	; 0xab6 <__vector_11>
      2e:	00 00       	nop
      30:	a8 c0       	rjmp	.+336    	; 0x182 <__bad_interrupt>
      32:	00 00       	nop
      34:	a6 c0       	rjmp	.+332    	; 0x182 <__bad_interrupt>
      36:	00 00       	nop
      38:	a4 c0       	rjmp	.+328    	; 0x182 <__bad_interrupt>
      3a:	00 00       	nop
      3c:	a2 c0       	rjmp	.+324    	; 0x182 <__bad_interrupt>
      3e:	00 00       	nop
      40:	a0 c0       	rjmp	.+320    	; 0x182 <__bad_interrupt>
      42:	00 00       	nop
      44:	ce c1       	rjmp	.+924    	; 0x3e2 <__vector_17>
      46:	00 00       	nop
      48:	9c c0       	rjmp	.+312    	; 0x182 <__bad_interrupt>
      4a:	00 00       	nop
      4c:	9a c0       	rjmp	.+308    	; 0x182 <__bad_interrupt>
      4e:	00 00       	nop
      50:	98 c0       	rjmp	.+304    	; 0x182 <__bad_interrupt>
      52:	00 00       	nop
      54:	96 c0       	rjmp	.+300    	; 0x182 <__bad_interrupt>
      56:	00 00       	nop
      58:	94 c0       	rjmp	.+296    	; 0x182 <__bad_interrupt>
      5a:	00 00       	nop
      5c:	92 c0       	rjmp	.+292    	; 0x182 <__bad_interrupt>
      5e:	00 00       	nop
      60:	90 c0       	rjmp	.+288    	; 0x182 <__bad_interrupt>
      62:	00 00       	nop
      64:	8e c0       	rjmp	.+284    	; 0x182 <__bad_interrupt>
      66:	00 00       	nop
      68:	8c c0       	rjmp	.+280    	; 0x182 <__bad_interrupt>
      6a:	00 00       	nop
      6c:	8a c0       	rjmp	.+276    	; 0x182 <__bad_interrupt>
      6e:	00 00       	nop
      70:	88 c0       	rjmp	.+272    	; 0x182 <__bad_interrupt>
      72:	00 00       	nop
      74:	86 c0       	rjmp	.+268    	; 0x182 <__bad_interrupt>
      76:	00 00       	nop
      78:	84 c0       	rjmp	.+264    	; 0x182 <__bad_interrupt>
      7a:	00 00       	nop
      7c:	82 c0       	rjmp	.+260    	; 0x182 <__bad_interrupt>
      7e:	00 00       	nop
      80:	80 c0       	rjmp	.+256    	; 0x182 <__bad_interrupt>
      82:	00 00       	nop
      84:	7e c0       	rjmp	.+252    	; 0x182 <__bad_interrupt>
      86:	00 00       	nop
      88:	7c c0       	rjmp	.+248    	; 0x182 <__bad_interrupt>
      8a:	00 00       	nop
      8c:	7a c0       	rjmp	.+244    	; 0x182 <__bad_interrupt>
      8e:	00 00       	nop
      90:	78 c0       	rjmp	.+240    	; 0x182 <__bad_interrupt>
      92:	00 00       	nop
      94:	76 c0       	rjmp	.+236    	; 0x182 <__bad_interrupt>
      96:	00 00       	nop
      98:	74 c0       	rjmp	.+232    	; 0x182 <__bad_interrupt>
      9a:	00 00       	nop
      9c:	72 c0       	rjmp	.+228    	; 0x182 <__bad_interrupt>
      9e:	00 00       	nop
      a0:	70 c0       	rjmp	.+224    	; 0x182 <__bad_interrupt>
      a2:	00 00       	nop
      a4:	6e c0       	rjmp	.+220    	; 0x182 <__bad_interrupt>
      a6:	00 00       	nop
      a8:	6c c0       	rjmp	.+216    	; 0x182 <__bad_interrupt>
      aa:	00 00       	nop

000000ac <ProductString>:
      ac:	2e 03 4c 00 55 00 46 00 41 00 20 00 55 00 53 00     ..L.U.F.A. .U.S.
      bc:	42 00 2d 00 52 00 53 00 32 00 33 00 32 00 20 00     B.-.R.S.2.3.2. .
      cc:	41 00 64 00 61 00 70 00 74 00 65 00 72 00 00 00     A.d.a.p.t.e.r...

000000dc <ManufacturerString>:
      dc:	18 03 44 00 65 00 61 00 6e 00 20 00 43 00 61 00     ..D.e.a.n. .C.a.
      ec:	6d 00 65 00 72 00 61 00 00 00                       m.e.r.a...

000000f6 <LanguageString>:
      f6:	04 03 09 04                                         ....

000000fa <ConfigurationDescriptor>:
      fa:	09 02 3e 00 02 01 00 c0 32 09 04 00 00 01 02 02     ..>.....2.......
     10a:	01 00 05 24 00 10 01 04 24 02 06 05 24 06 00 01     ...$....$...$...
     11a:	07 05 82 03 08 00 ff 09 04 01 00 02 0a 00 00 00     ................
     12a:	07 05 04 02 10 00 05 07 05 83 02 10 00 05           ..............

00000138 <DeviceDescriptor>:
     138:	12 01 10 01 02 00 00 08 eb 03 4b 20 01 00 01 02     ..........K ....
     148:	dc 01                                               ..

0000014a <__ctors_end>:
     14a:	11 24       	eor	r1, r1
     14c:	1f be       	out	0x3f, r1	; 63
     14e:	cf ef       	ldi	r28, 0xFF	; 255
     150:	da e0       	ldi	r29, 0x0A	; 10
     152:	de bf       	out	0x3e, r29	; 62
     154:	cd bf       	out	0x3d, r28	; 61

00000156 <__do_copy_data>:
     156:	11 e0       	ldi	r17, 0x01	; 1
     158:	a0 e0       	ldi	r26, 0x00	; 0
     15a:	b1 e0       	ldi	r27, 0x01	; 1
     15c:	e2 e6       	ldi	r30, 0x62	; 98
     15e:	f8 e1       	ldi	r31, 0x18	; 24
     160:	02 c0       	rjmp	.+4      	; 0x166 <__do_copy_data+0x10>
     162:	05 90       	lpm	r0, Z+
     164:	0d 92       	st	X+, r0
     166:	ae 35       	cpi	r26, 0x5E	; 94
     168:	b1 07       	cpc	r27, r17
     16a:	d9 f7       	brne	.-10     	; 0x162 <__do_copy_data+0xc>

0000016c <__do_clear_bss>:
     16c:	12 e0       	ldi	r17, 0x02	; 2
     16e:	ae e5       	ldi	r26, 0x5E	; 94
     170:	b1 e0       	ldi	r27, 0x01	; 1
     172:	01 c0       	rjmp	.+2      	; 0x176 <.do_clear_bss_start>

00000174 <.do_clear_bss_loop>:
     174:	1d 92       	st	X+, r1

00000176 <.do_clear_bss_start>:
     176:	a2 3b       	cpi	r26, 0xB2	; 178
     178:	b1 07       	cpc	r27, r17
     17a:	e1 f7       	brne	.-8      	; 0x174 <.do_clear_bss_loop>
     17c:	3b d0       	rcall	.+118    	; 0x1f4 <main>
     17e:	0c 94 2f 0c 	jmp	0x185e	; 0x185e <_exit>

00000182 <__bad_interrupt>:
     182:	3e cf       	rjmp	.-388    	; 0x0 <__vectors>

00000184 <LEDs_SetAllLEDs>:
				PORTD &= ~LEDMask;
			}

			static inline void LEDs_SetAllLEDs(const uint8_t LEDMask)
			{
				PORTD = ((PORTD & ~LEDS_ALL_LEDS) | LEDMask);
     184:	9b b1       	in	r25, 0x0b	; 11
     186:	9f 70       	andi	r25, 0x0F	; 15
     188:	98 2b       	or	r25, r24
     18a:	9b b9       	out	0x0b, r25	; 11
			}
     18c:	08 95       	ret

0000018e <timerInit>:
    timerInit();
}

void timerInit()
{
    cli();
     18e:	f8 94       	cli
    
    TCCR1A = 0;
     190:	10 92 80 00 	sts	0x0080, r1
    TCCR1B = 0xC;
     194:	8c e0       	ldi	r24, 0x0C	; 12
     196:	80 93 81 00 	sts	0x0081, r24
    TCCR1C = 0;
     19a:	10 92 82 00 	sts	0x0082, r1
    TCNT1= 0;
     19e:	10 92 85 00 	sts	0x0085, r1
     1a2:	10 92 84 00 	sts	0x0084, r1
    
    OCR1A = 0xF440;
     1a6:	80 e4       	ldi	r24, 0x40	; 64
     1a8:	94 ef       	ldi	r25, 0xF4	; 244
     1aa:	90 93 89 00 	sts	0x0089, r25
     1ae:	80 93 88 00 	sts	0x0088, r24
    
    TIMSK1 = 2;
     1b2:	82 e0       	ldi	r24, 0x02	; 2
     1b4:	80 93 6f 00 	sts	0x006F, r24
    
    sei();
     1b8:	78 94       	sei
}
     1ba:	08 95       	ret

000001bc <SetupHardware>:

/** Configures the board hardware and chip peripherals for the demo's functionality. */
void SetupHardware(void)
{
	/* Disable watchdog if enabled by bootloader/fuses */
	MCUSR &= ~(1 << WDRF);
     1bc:	84 b7       	in	r24, 0x34	; 52
     1be:	87 7f       	andi	r24, 0xF7	; 247
     1c0:	84 bf       	out	0x34, r24	; 52
	wdt_disable();
     1c2:	88 e1       	ldi	r24, 0x18	; 24
     1c4:	0f b6       	in	r0, 0x3f	; 63
     1c6:	f8 94       	cli
     1c8:	80 93 60 00 	sts	0x0060, r24
     1cc:	10 92 60 00 	sts	0x0060, r1
     1d0:	0f be       	out	0x3f, r0	; 63
The type of x is clock_div_t.
*/
void clock_prescale_set(clock_div_t __x)
{
    uint8_t __tmp = _BV(CLKPCE);
    __asm__ __volatile__ (
     1d2:	90 e0       	ldi	r25, 0x00	; 0
     1d4:	80 e8       	ldi	r24, 0x80	; 128
     1d6:	0f b6       	in	r0, 0x3f	; 63
     1d8:	f8 94       	cli
     1da:	80 93 61 00 	sts	0x0061, r24
     1de:	90 93 61 00 	sts	0x0061, r25
     1e2:	0f be       	out	0x3f, r0	; 63

		/* Inline Functions: */
		#if !defined(__DOXYGEN__)
			static inline void LEDs_Init(void)
			{
				DDRD  |=  LEDS_ALL_LEDS;
     1e4:	8a b1       	in	r24, 0x0a	; 10
     1e6:	80 6f       	ori	r24, 0xF0	; 240
     1e8:	8a b9       	out	0x0a, r24	; 10
				PORTD &= ~LEDS_ALL_LEDS;
     1ea:	8b b1       	in	r24, 0x0b	; 11
     1ec:	8f 70       	andi	r24, 0x0F	; 15
     1ee:	8b b9       	out	0x0b, r24	; 11
	/* Disable clock division */
	clock_prescale_set(clock_div_1);

	/* Hardware Initialization */
	LEDs_Init();
	USB_Init();
     1f0:	81 d3       	rcall	.+1794   	; 0x8f4 <USB_Init>
     1f2:	cd cf       	rjmp	.-102    	; 0x18e <timerInit>

000001f4 <main>:
    timerInit();
     1f4:	cf 93       	push	r28
     1f6:	df 93       	push	r29
}
     1f8:	cd b7       	in	r28, 0x3d	; 61

/** Main program entry point. This routine contains the overall program flow, including initial
 *  setup of all components and the main program loop.
 */
int main(void)
{
     1fa:	de b7       	in	r29, 0x3e	; 62
     1fc:	a8 97       	sbiw	r28, 0x28	; 40
     1fe:	0f b6       	in	r0, 0x3f	; 63
     200:	f8 94       	cli
     202:	de bf       	out	0x3e, r29	; 62
     204:	0f be       	out	0x3f, r0	; 63
     206:	cd bf       	out	0x3d, r28	; 61
    #define STRING_LENGTH 30
    char string[STRING_LENGTH];
    char *str = (char *)&string;
    char i = 0;
    
	SetupHardware();
     208:	d9 df       	rcall	.-78     	; 0x1bc <SetupHardware>
     20a:	e2 e6       	ldi	r30, 0x62	; 98
		                                         const uint16_t Size) ATTR_NON_NULL_PTR_ARG(1) ATTR_NON_NULL_PTR_ARG(2);
		static inline void RingBuffer_InitBuffer(RingBuffer_t* Buffer,
		                                         uint8_t* const DataPtr,
		                                         const uint16_t Size)
		{
			GCC_FORCE_POINTER_ACCESS(Buffer);
     20c:	f1 e0       	ldi	r31, 0x01	; 1
     20e:	2f b7       	in	r18, 0x3f	; 63
			static inline uint_reg_t GetGlobalInterruptMask(void)
			{
				GCC_MEMORY_BARRIER();

				#if (ARCH == ARCH_AVR8)
				return SREG;
     210:	f8 94       	cli
			static inline void GlobalInterruptDisable(void)
			{
				GCC_MEMORY_BARRIER();

				#if (ARCH == ARCH_AVR8)
				cli();
     212:	8e e6       	ldi	r24, 0x6E	; 110

			uint_reg_t CurrentGlobalInt = GetGlobalInterruptMask();
			GlobalInterruptDisable();

			Buffer->In     = DataPtr;
     214:	91 e0       	ldi	r25, 0x01	; 1
     216:	91 83       	std	Z+1, r25	; 0x01
     218:	80 83       	st	Z, r24
     21a:	93 83       	std	Z+3, r25	; 0x03
			Buffer->Out    = DataPtr;
     21c:	82 83       	std	Z+2, r24	; 0x02
     21e:	95 83       	std	Z+5, r25	; 0x05
			Buffer->Start  = &DataPtr[0];
     220:	84 83       	std	Z+4, r24	; 0x04
     222:	8e ee       	ldi	r24, 0xEE	; 238
			Buffer->End    = &DataPtr[Size];
     224:	91 e0       	ldi	r25, 0x01	; 1
     226:	97 83       	std	Z+7, r25	; 0x07
     228:	86 83       	std	Z+6, r24	; 0x06
     22a:	80 e8       	ldi	r24, 0x80	; 128
			Buffer->Size   = Size;
     22c:	90 e0       	ldi	r25, 0x00	; 0
     22e:	91 87       	std	Z+9, r25	; 0x09
     230:	80 87       	std	Z+8, r24	; 0x08
     232:	13 86       	std	Z+11, r1	; 0x0b
			Buffer->Count  = 0;
     234:	12 86       	std	Z+10, r1	; 0x0a
     236:	2f bf       	out	0x3f, r18	; 63
			static inline void SetGlobalInterruptMask(const uint_reg_t GlobalIntState)
			{
				GCC_MEMORY_BARRIER();

				#if (ARCH == ARCH_AVR8)
				SREG = GlobalIntState;
     238:	ee ee       	ldi	r30, 0xEE	; 238
		                                         const uint16_t Size) ATTR_NON_NULL_PTR_ARG(1) ATTR_NON_NULL_PTR_ARG(2);
		static inline void RingBuffer_InitBuffer(RingBuffer_t* Buffer,
		                                         uint8_t* const DataPtr,
		                                         const uint16_t Size)
		{
			GCC_FORCE_POINTER_ACCESS(Buffer);
     23a:	f1 e0       	ldi	r31, 0x01	; 1
     23c:	4f b7       	in	r20, 0x3f	; 63
			static inline uint_reg_t GetGlobalInterruptMask(void)
			{
				GCC_MEMORY_BARRIER();

				#if (ARCH == ARCH_AVR8)
				return SREG;
     23e:	f8 94       	cli
			static inline void GlobalInterruptDisable(void)
			{
				GCC_MEMORY_BARRIER();

				#if (ARCH == ARCH_AVR8)
				cli();
     240:	2a ef       	ldi	r18, 0xFA	; 250

			uint_reg_t CurrentGlobalInt = GetGlobalInterruptMask();
			GlobalInterruptDisable();

			Buffer->In     = DataPtr;
     242:	31 e0       	ldi	r19, 0x01	; 1
     244:	31 83       	std	Z+1, r19	; 0x01
     246:	20 83       	st	Z, r18
     248:	33 83       	std	Z+3, r19	; 0x03
			Buffer->Out    = DataPtr;
     24a:	22 83       	std	Z+2, r18	; 0x02
     24c:	35 83       	std	Z+5, r19	; 0x05
			Buffer->Start  = &DataPtr[0];
     24e:	24 83       	std	Z+4, r18	; 0x04
     250:	2a e7       	ldi	r18, 0x7A	; 122
			Buffer->End    = &DataPtr[Size];
     252:	32 e0       	ldi	r19, 0x02	; 2
     254:	37 83       	std	Z+7, r19	; 0x07
     256:	26 83       	std	Z+6, r18	; 0x06
     258:	91 87       	std	Z+9, r25	; 0x09
			Buffer->Size   = Size;
     25a:	80 87       	std	Z+8, r24	; 0x08
     25c:	13 86       	std	Z+11, r1	; 0x0b
			Buffer->Count  = 0;
     25e:	12 86       	std	Z+10, r1	; 0x0a
     260:	4f bf       	out	0x3f, r20	; 63
			static inline void SetGlobalInterruptMask(const uint_reg_t GlobalIntState)
			{
				GCC_MEMORY_BARRIER();

				#if (ARCH == ARCH_AVR8)
				SREG = GlobalIntState;
     262:	80 e3       	ldi	r24, 0x30	; 48

	RingBuffer_InitBuffer(&USBtoUSART_Buffer, USBtoUSART_Buffer_Data, sizeof(USBtoUSART_Buffer_Data));
	RingBuffer_InitBuffer(&USARTtoUSB_Buffer, USARTtoUSB_Buffer_Data, sizeof(USARTtoUSB_Buffer_Data));
    
    CDC_Device_CreateStream(&VirtualSerial_CDC_Interface, &USBSerialStream);
     264:	91 e0       	ldi	r25, 0x01	; 1
     266:	6a e7       	ldi	r22, 0x7A	; 122
     268:	72 e0       	ldi	r23, 0x02	; 2
     26a:	cd d7       	rcall	.+3994   	; 0x1206 <CDC_Device_CreateStream>
     26c:	80 e1       	ldi	r24, 0x10	; 16
     26e:	8a df       	rcall	.-236    	; 0x184 <LEDs_SetAllLEDs>

	LEDs_SetAllLEDs(LEDMASK_USB_NOTREADY);
     270:	78 94       	sei
     272:	8b e0       	ldi	r24, 0x0B	; 11
     274:	e8 2e       	mov	r14, r24
			static inline void GlobalInterruptEnable(void)
			{
				GCC_MEMORY_BARRIER();

				#if (ARCH == ARCH_AVR8)
				sei();
     276:	f1 2c       	mov	r15, r1
 */
int main(void)
{
    #define STRING_LENGTH 30
    char string[STRING_LENGTH];
    char *str = (char *)&string;
     278:	ec 0e       	add	r14, r28
     27a:	fd 1e       	adc	r15, r29
     27c:	8e e1       	ldi	r24, 0x1E	; 30
     27e:	f7 01       	movw	r30, r14
     280:	11 92       	st	Z+, r1
    CDC_Device_CreateStream(&VirtualSerial_CDC_Interface, &USBSerialStream);

	LEDs_SetAllLEDs(LEDMASK_USB_NOTREADY);
	GlobalInterruptEnable();
    
    memset(str, '\0', STRING_LENGTH);
     282:	8a 95       	dec	r24
     284:	e9 f7       	brne	.-6      	; 0x280 <main+0x8c>
     286:	80 e3       	ldi	r24, 0x30	; 48
     288:	91 e0       	ldi	r25, 0x01	; 1
     28a:	60 e0       	ldi	r22, 0x00	; 0
    CDC_Device_SendString(&VirtualSerial_CDC_Interface, "Ready\r\n");
     28c:	71 e0       	ldi	r23, 0x01	; 1
     28e:	9e d6       	rcall	.+3388   	; 0xfcc <CDC_Device_SendString>
     290:	10 e0       	ldi	r17, 0x00	; 0
     292:	4a e7       	ldi	r20, 0x7A	; 122
     294:	a4 2e       	mov	r10, r20
     296:	42 e0       	ldi	r20, 0x02	; 2
int main(void)
{
    #define STRING_LENGTH 30
    char string[STRING_LENGTH];
    char *str = (char *)&string;
    char i = 0;
     298:	b4 2e       	mov	r11, r20
	{
        char compare[10];
        
        if(completeWord){
            completeWord = 0;
            fprintf(&USBSerialStream, "fprint: ");
     29a:	58 e8       	ldi	r21, 0x88	; 136
     29c:	85 2e       	mov	r8, r21
     29e:	52 e0       	ldi	r21, 0x02	; 2
     2a0:	95 2e       	mov	r9, r21
            fprintf(&USBSerialStream, intString);
     2a2:	ee e1       	ldi	r30, 0x1E	; 30
     2a4:	de 2e       	mov	r13, r30
     2a6:	37 01       	movw	r6, r14
     2a8:	80 91 5f 01 	lds	r24, 0x015F
            CDC_Device_SendString(&VirtualSerial_CDC_Interface, "CDC: ");
            CDC_Device_SendString(&VirtualSerial_CDC_Interface, intString);
            memset(intString, '\0', 30);
     2ac:	88 23       	and	r24, r24
     2ae:	09 f4       	brne	.+2      	; 0x2b2 <main+0xbe>

	for (;;)
	{
        char compare[10];
        
        if(completeWord){
     2b0:	7b c0       	rjmp	.+246    	; 0x3a8 <main+0x1b4>
     2b2:	10 92 5f 01 	sts	0x015F, r1
     2b6:	88 e0       	ldi	r24, 0x08	; 8
     2b8:	91 e0       	ldi	r25, 0x01	; 1
            completeWord = 0;
     2ba:	6a e7       	ldi	r22, 0x7A	; 122
     2bc:	72 e0       	ldi	r23, 0x02	; 2
            fprintf(&USBSerialStream, "fprint: ");
     2be:	0e 94 66 09 	call	0x12cc	; 0x12cc <fputs>
     2c2:	00 d0       	rcall	.+0      	; 0x2c4 <main+0xd0>
     2c4:	00 d0       	rcall	.+0      	; 0x2c6 <main+0xd2>
     2c6:	ed b7       	in	r30, 0x3d	; 61
     2c8:	fe b7       	in	r31, 0x3e	; 62
            fprintf(&USBSerialStream, intString);
     2ca:	b2 82       	std	Z+2, r11	; 0x02
     2cc:	a1 82       	std	Z+1, r10	; 0x01
     2ce:	94 82       	std	Z+4, r9	; 0x04
     2d0:	83 82       	std	Z+3, r8	; 0x03
     2d2:	ec d7       	rcall	.+4056   	; 0x12ac <fprintf>
     2d4:	0f 90       	pop	r0
     2d6:	0f 90       	pop	r0
     2d8:	0f 90       	pop	r0
     2da:	0f 90       	pop	r0
     2dc:	80 e3       	ldi	r24, 0x30	; 48
            CDC_Device_SendString(&VirtualSerial_CDC_Interface, "CDC: ");
     2de:	91 e0       	ldi	r25, 0x01	; 1
     2e0:	61 e1       	ldi	r22, 0x11	; 17
     2e2:	71 e0       	ldi	r23, 0x01	; 1
     2e4:	73 d6       	rcall	.+3302   	; 0xfcc <CDC_Device_SendString>
     2e6:	80 e3       	ldi	r24, 0x30	; 48
     2e8:	91 e0       	ldi	r25, 0x01	; 1
     2ea:	68 e8       	ldi	r22, 0x88	; 136
     2ec:	72 e0       	ldi	r23, 0x02	; 2
     2ee:	6e d6       	rcall	.+3292   	; 0xfcc <CDC_Device_SendString>
     2f0:	f4 01       	movw	r30, r8
            CDC_Device_SendString(&VirtualSerial_CDC_Interface, intString);
     2f2:	2d 2d       	mov	r18, r13
     2f4:	11 92       	st	Z+, r1
     2f6:	2a 95       	dec	r18
     2f8:	e9 f7       	brne	.-6      	; 0x2f4 <main+0x100>
     2fa:	10 92 61 01 	sts	0x0161, r1
            memset(intString, '\0', 30);
     2fe:	10 92 60 01 	sts	0x0160, r1
     302:	52 c0       	rjmp	.+164    	; 0x3a8 <main+0x1b4>
     304:	80 e3       	ldi	r24, 0x30	; 48
     306:	91 e0       	ldi	r25, 0x01	; 1
            intIndex = 0;
     308:	37 d7       	rcall	.+3694   	; 0x1178 <CDC_Device_ReceiveByte>
     30a:	08 2f       	mov	r16, r24
     30c:	8d 30       	cpi	r24, 0x0D	; 13
     30e:	d1 f5       	brne	.+116    	; 0x384 <main+0x190>
     310:	ce 01       	movw	r24, r28
        
		/* Must throw away unused bytes from the host, or it will lock up while waiting for the device */
        while (CDC_Device_BytesReceived
               (&VirtualSerial_CDC_Interface))
        {
            char byte = CDC_Device_ReceiveByte(&VirtualSerial_CDC_Interface);
     312:	01 96       	adiw	r24, 0x01	; 1
     314:	b7 01       	movw	r22, r14
     316:	43 e0       	ldi	r20, 0x03	; 3
     318:	50 e0       	ldi	r21, 0x00	; 0
     31a:	b9 d7       	rcall	.+3954   	; 0x128e <strncpy>
            
            if(byte == '\r'){
     31c:	81 2f       	mov	r24, r17
     31e:	90 e0       	ldi	r25, 0x00	; 0
                strncpy(compare, str, 3);
     320:	f7 01       	movw	r30, r14
     322:	e8 0f       	add	r30, r24
     324:	f9 1f       	adc	r31, r25
     326:	00 83       	st	Z, r16
     328:	ec e0       	ldi	r30, 0x0C	; 12
     32a:	f0 e0       	ldi	r31, 0x00	; 0
     32c:	ec 0f       	add	r30, r28
                
                string[i] = '\r';
     32e:	fd 1f       	adc	r31, r29
     330:	8e 0f       	add	r24, r30
     332:	9f 1f       	adc	r25, r31
     334:	2a e0       	ldi	r18, 0x0A	; 10
     336:	fc 01       	movw	r30, r24
     338:	20 83       	st	Z, r18
                string[i+1] = '\n';
     33a:	00 d0       	rcall	.+0      	; 0x33c <main+0x148>
     33c:	00 d0       	rcall	.+0      	; 0x33e <main+0x14a>
     33e:	ed b7       	in	r30, 0x3d	; 61
     340:	fe b7       	in	r31, 0x3e	; 62
     342:	b2 82       	std	Z+2, r11	; 0x02
     344:	a1 82       	std	Z+1, r10	; 0x01
     346:	f4 82       	std	Z+4, r15	; 0x04
     348:	e3 82       	std	Z+3, r14	; 0x03
     34a:	b0 d7       	rcall	.+3936   	; 0x12ac <fprintf>
                fprintf(&USBSerialStream, string);
     34c:	f7 01       	movw	r30, r14
     34e:	2d 2d       	mov	r18, r13
     350:	11 92       	st	Z+, r1
     352:	2a 95       	dec	r18
     354:	e9 f7       	brne	.-6      	; 0x350 <main+0x15c>
     356:	0f 90       	pop	r0
     358:	0f 90       	pop	r0
     35a:	0f 90       	pop	r0
     35c:	0f 90       	pop	r0
     35e:	ce 01       	movw	r24, r28
                i = 0;
                memset(str, '\0', STRING_LENGTH);
     360:	01 96       	adiw	r24, 0x01	; 1
     362:	67 e1       	ldi	r22, 0x17	; 23
     364:	71 e0       	ldi	r23, 0x01	; 1
     366:	43 e0       	ldi	r20, 0x03	; 3
     368:	50 e0       	ldi	r21, 0x00	; 0
                if(strncmp(compare, "led", 3) == 0){
     36a:	83 d7       	rcall	.+3846   	; 0x1272 <strncmp>
     36c:	00 97       	sbiw	r24, 0x00	; 0
     36e:	19 f5       	brne	.+70     	; 0x3b6 <main+0x1c2>
     370:	8b e1       	ldi	r24, 0x1B	; 27
     372:	91 e0       	ldi	r25, 0x01	; 1
     374:	6a e7       	ldi	r22, 0x7A	; 122
     376:	72 e0       	ldi	r23, 0x02	; 2
     378:	a9 d7       	rcall	.+3922   	; 0x12cc <fputs>
     37a:	8b b1       	in	r24, 0x0b	; 11
     37c:	90 e1       	ldi	r25, 0x10	; 16
     37e:	89 27       	eor	r24, r25
     380:	8b b9       	out	0x0b, r24	; 11
     382:	19 c0       	rjmp	.+50     	; 0x3b6 <main+0x1c2>
     384:	f3 01       	movw	r30, r6
                    //CDC_Device_SendString(&VirtualSerial_CDC_Interface, "Set LED\r\n");
                    fprintf(&USBSerialStream, "Set LED\r\n");
     386:	e1 0f       	add	r30, r17
     388:	f1 1d       	adc	r31, r1
     38a:	80 83       	st	Z, r24
     38c:	1f 5f       	subi	r17, 0xFF	; 255
     38e:	1a 31       	cpi	r17, 0x1A	; 26
     390:	58 f0       	brcs	.+22     	; 0x3a8 <main+0x1b4>
                    PORTD ^= 1<<4;
     392:	85 e2       	ldi	r24, 0x25	; 37
     394:	91 e0       	ldi	r25, 0x01	; 1
     396:	6a e7       	ldi	r22, 0x7A	; 122
     398:	72 e0       	ldi	r23, 0x02	; 2
     39a:	98 d7       	rcall	.+3888   	; 0x12cc <fputs>
                }
                //strcpy(str, "echo: ");
                break;
            }
            string[i] = byte;
     39c:	f3 01       	movw	r30, r6
     39e:	2d 2d       	mov	r18, r13
     3a0:	11 92       	st	Z+, r1
     3a2:	2a 95       	dec	r18
            i++;
     3a4:	e9 f7       	brne	.-6      	; 0x3a0 <main+0x1ac>
            if(i >= STRING_LENGTH - 4){
     3a6:	10 e0       	ldi	r17, 0x00	; 0
     3a8:	80 e3       	ldi	r24, 0x30	; 48
                fprintf(&USBSerialStream, "Overflow\r\n");
     3aa:	91 e0       	ldi	r25, 0x01	; 1
     3ac:	af d6       	rcall	.+3422   	; 0x110c <CDC_Device_BytesReceived>
     3ae:	00 97       	sbiw	r24, 0x00	; 0
     3b0:	09 f0       	breq	.+2      	; 0x3b4 <main+0x1c0>
     3b2:	a8 cf       	rjmp	.-176    	; 0x304 <main+0x110>
     3b4:	01 c0       	rjmp	.+2      	; 0x3b8 <main+0x1c4>
                
                i = 0;
                memset(str, '\0', STRING_LENGTH);
     3b6:	10 e0       	ldi	r17, 0x00	; 0
     3b8:	80 e3       	ldi	r24, 0x30	; 48
     3ba:	91 e0       	ldi	r25, 0x01	; 1
     3bc:	90 d6       	rcall	.+3360   	; 0x10de <CDC_Device_USBTask>
     3be:	1b d5       	rcall	.+2614   	; 0xdf6 <USB_USBTask>
            string[i] = byte;
            i++;
            if(i >= STRING_LENGTH - 4){
                fprintf(&USBSerialStream, "Overflow\r\n");
                
                i = 0;
     3c0:	73 cf       	rjmp	.-282    	; 0x2a8 <main+0xb4>

000003c2 <EVENT_USB_Device_Connect>:
            intIndex = 0;
        }
        
		/* Must throw away unused bytes from the host, or it will lock up while waiting for the device */
        while (CDC_Device_BytesReceived
               (&VirtualSerial_CDC_Interface))
     3c2:	80 ea       	ldi	r24, 0xA0	; 160
     3c4:	df ce       	rjmp	.-578    	; 0x184 <LEDs_SetAllLEDs>

000003c6 <EVENT_USB_Device_Disconnect>:
     3c6:	80 e1       	ldi	r24, 0x10	; 16
     3c8:	dd ce       	rjmp	.-582    	; 0x184 <LEDs_SetAllLEDs>

000003ca <EVENT_USB_Device_ConfigurationChanged>:
            memset(intString, '\0', 30);
            intIndex = 0;
        }
        
		/* Must throw away unused bytes from the host, or it will lock up while waiting for the device */
        while (CDC_Device_BytesReceived
     3ca:	80 e3       	ldi	r24, 0x30	; 48
     3cc:	91 e0       	ldi	r25, 0x01	; 1
     3ce:	da d5       	rcall	.+2996   	; 0xf84 <CDC_Device_ConfigureEndpoints>
     3d0:	88 23       	and	r24, r24
                strncpy(compare, str, 3);
                
                string[i] = '\r';
                string[i+1] = '\n';
                fprintf(&USBSerialStream, string);
                i = 0;
     3d2:	11 f0       	breq	.+4      	; 0x3d8 <EVENT_USB_Device_ConfigurationChanged+0xe>
        /*
		if (!(RingBuffer_IsEmpty(&USBtoUSART_Buffer)))
		  Serial_SendByte(RingBuffer_Remove(&USBtoUSART_Buffer));
        */

		CDC_Device_USBTask(&VirtualSerial_CDC_Interface);
     3d4:	80 e6       	ldi	r24, 0x60	; 96
     3d6:	01 c0       	rjmp	.+2      	; 0x3da <EVENT_USB_Device_ConfigurationChanged+0x10>
     3d8:	80 e9       	ldi	r24, 0x90	; 144
     3da:	d4 ce       	rjmp	.-600    	; 0x184 <LEDs_SetAllLEDs>

000003dc <EVENT_USB_Device_ControlRequest>:
		USB_USBTask();
     3dc:	80 e3       	ldi	r24, 0x30	; 48
     3de:	91 e0       	ldi	r25, 0x01	; 1
	}
     3e0:	25 c5       	rjmp	.+2634   	; 0xe2c <CDC_Device_ProcessControlRequest>

000003e2 <__vector_17>:
}

/** Event handler for the library USB Control Request reception event. */
void EVENT_USB_Device_ControlRequest(void)
{
	CDC_Device_ProcessControlRequest(&VirtualSerial_CDC_Interface);
     3e2:	1f 92       	push	r1
}
     3e4:	0f 92       	push	r0
    }
}
 */

ISR(TIMER1_COMPA_vect)
{
     3e6:	0f b6       	in	r0, 0x3f	; 63
     3e8:	0f 92       	push	r0
     3ea:	11 24       	eor	r1, r1
        TCNT1 = 0;
        PORTD ^= (1<<4);
        fprintf(&USBSerialStream, 'tick');
    }*/
     
}
     3ec:	0f 90       	pop	r0
     3ee:	0f be       	out	0x3f, r0	; 63
     3f0:	0f 90       	pop	r0
     3f2:	1f 90       	pop	r1
     3f4:	18 95       	reti

000003f6 <EVENT_CDC_Device_LineEncodingChanged>:
/** Event handler for the CDC Class driver Line Encoding Changed event.
 *
 *  \param[in] CDCInterfaceInfo  Pointer to the CDC class interface configuration structure being referenced
 */
void EVENT_CDC_Device_LineEncodingChanged(USB_ClassInfo_CDC_Device_t* const CDCInterfaceInfo)
{
     3f6:	cf 93       	push	r28
     3f8:	fc 01       	movw	r30, r24
	uint8_t ConfigMask = 0;

	switch (CDCInterfaceInfo->State.LineEncoding.ParityType)
     3fa:	a1 8d       	ldd	r26, Z+25	; 0x19
     3fc:	a1 50       	subi	r26, 0x01	; 1
     3fe:	a2 30       	cpi	r26, 0x02	; 2
     400:	28 f4       	brcc	.+10     	; 0x40c <EVENT_CDC_Device_LineEncodingChanged+0x16>
     402:	b0 e0       	ldi	r27, 0x00	; 0
     404:	a5 5b       	subi	r26, 0xB5	; 181
     406:	be 4f       	sbci	r27, 0xFE	; 254
     408:	cc 91       	ld	r28, X
     40a:	01 c0       	rjmp	.+2      	; 0x40e <EVENT_CDC_Device_LineEncodingChanged+0x18>
     40c:	c0 e0       	ldi	r28, 0x00	; 0
		case CDC_PARITY_Even:
			ConfigMask = (1 << UPM11);
			break;
	}

	if (CDCInterfaceInfo->State.LineEncoding.CharFormat == CDC_LINEENCODING_TwoStopBits)
     40e:	80 8d       	ldd	r24, Z+24	; 0x18
     410:	82 30       	cpi	r24, 0x02	; 2
     412:	09 f4       	brne	.+2      	; 0x416 <EVENT_CDC_Device_LineEncodingChanged+0x20>
	  ConfigMask |= (1 << USBS1);
     414:	c8 60       	ori	r28, 0x08	; 8

	switch (CDCInterfaceInfo->State.LineEncoding.DataBits)
     416:	82 8d       	ldd	r24, Z+26	; 0x1a
     418:	87 30       	cpi	r24, 0x07	; 7
     41a:	31 f0       	breq	.+12     	; 0x428 <EVENT_CDC_Device_LineEncodingChanged+0x32>
     41c:	88 30       	cpi	r24, 0x08	; 8
     41e:	31 f0       	breq	.+12     	; 0x42c <EVENT_CDC_Device_LineEncodingChanged+0x36>
     420:	86 30       	cpi	r24, 0x06	; 6
     422:	29 f4       	brne	.+10     	; 0x42e <EVENT_CDC_Device_LineEncodingChanged+0x38>
	{
		case 6:
			ConfigMask |= (1 << UCSZ10);
     424:	c2 60       	ori	r28, 0x02	; 2
			break;
     426:	03 c0       	rjmp	.+6      	; 0x42e <EVENT_CDC_Device_LineEncodingChanged+0x38>
		case 7:
			ConfigMask |= (1 << UCSZ11);
     428:	c4 60       	ori	r28, 0x04	; 4
			break;
     42a:	01 c0       	rjmp	.+2      	; 0x42e <EVENT_CDC_Device_LineEncodingChanged+0x38>
		case 8:
			ConfigMask |= ((1 << UCSZ11) | (1 << UCSZ10));
     42c:	c6 60       	ori	r28, 0x06	; 6
			break;
	}

	/* Must turn off USART before reconfiguring it, otherwise incorrect operation may occur */
	UCSR1B = 0;
     42e:	10 92 c9 00 	sts	0x00C9, r1
	UCSR1A = 0;
     432:	10 92 c8 00 	sts	0x00C8, r1
	UCSR1C = 0;
     436:	10 92 ca 00 	sts	0x00CA, r1

	/* Set the new baud rate before configuring the USART */
	UBRR1  = SERIAL_2X_UBBRVAL(CDCInterfaceInfo->State.LineEncoding.BaudRateBPS);
     43a:	24 89       	ldd	r18, Z+20	; 0x14
     43c:	35 89       	ldd	r19, Z+21	; 0x15
     43e:	46 89       	ldd	r20, Z+22	; 0x16
     440:	57 89       	ldd	r21, Z+23	; 0x17
     442:	da 01       	movw	r26, r20
     444:	c9 01       	movw	r24, r18
     446:	b6 95       	lsr	r27
     448:	a7 95       	ror	r26
     44a:	97 95       	ror	r25
     44c:	87 95       	ror	r24
     44e:	80 58       	subi	r24, 0x80	; 128
     450:	9b 47       	sbci	r25, 0x7B	; 123
     452:	a1 4e       	sbci	r26, 0xE1	; 225
     454:	bf 4f       	sbci	r27, 0xFF	; 255
     456:	bc 01       	movw	r22, r24
     458:	cd 01       	movw	r24, r26
     45a:	e9 d6       	rcall	.+3538   	; 0x122e <__udivmodsi4>
     45c:	21 50       	subi	r18, 0x01	; 1
     45e:	30 40       	sbci	r19, 0x00	; 0
     460:	30 93 cd 00 	sts	0x00CD, r19
     464:	20 93 cc 00 	sts	0x00CC, r18
     468:	c0 93 ca 00 	sts	0x00CA, r28

	/* Reconfigure the USART in double speed mode for a wider baud rate range at the expense of accuracy */
	UCSR1C = ConfigMask;
     46c:	82 e0       	ldi	r24, 0x02	; 2
	UCSR1A = (1 << U2X1);
     46e:	80 93 c8 00 	sts	0x00C8, r24
     472:	88 e9       	ldi	r24, 0x98	; 152
	UCSR1B = ((1 << RXCIE1) | (1 << TXEN1) | (1 << RXEN1));
     474:	80 93 c9 00 	sts	0x00C9, r24
     478:	cf 91       	pop	r28
}
     47a:	08 95       	ret

0000047c <CALLBACK_USB_GetDescriptor>:
	const uint8_t  DescriptorNumber = (wValue & 0xFF);

	const void* Address = NULL;
	uint16_t    Size    = NO_DESCRIPTOR;

	switch (DescriptorType)
     47c:	92 30       	cpi	r25, 0x02	; 2
     47e:	29 f0       	breq	.+10     	; 0x48a <CALLBACK_USB_GetDescriptor+0xe>
     480:	93 30       	cpi	r25, 0x03	; 3
     482:	41 f0       	breq	.+16     	; 0x494 <CALLBACK_USB_GetDescriptor+0x18>
     484:	91 30       	cpi	r25, 0x01	; 1
     486:	e9 f4       	brne	.+58     	; 0x4c2 <CALLBACK_USB_GetDescriptor+0x46>
     488:	17 c0       	rjmp	.+46     	; 0x4b8 <CALLBACK_USB_GetDescriptor+0x3c>
			Address = &DeviceDescriptor;
			Size    = sizeof(USB_Descriptor_Device_t);
			break;
		case DTYPE_Configuration:
			Address = &ConfigurationDescriptor;
			Size    = sizeof(USB_Descriptor_Configuration_t);
     48a:	8e e3       	ldi	r24, 0x3E	; 62
     48c:	90 e0       	ldi	r25, 0x00	; 0
		case DTYPE_Device:
			Address = &DeviceDescriptor;
			Size    = sizeof(USB_Descriptor_Device_t);
			break;
		case DTYPE_Configuration:
			Address = &ConfigurationDescriptor;
     48e:	ea ef       	ldi	r30, 0xFA	; 250
     490:	f0 e0       	ldi	r31, 0x00	; 0
			Size    = sizeof(USB_Descriptor_Configuration_t);
			break;
     492:	1b c0       	rjmp	.+54     	; 0x4ca <CALLBACK_USB_GetDescriptor+0x4e>
		case DTYPE_String:
			switch (DescriptorNumber)
     494:	81 30       	cpi	r24, 0x01	; 1
     496:	41 f0       	breq	.+16     	; 0x4a8 <CALLBACK_USB_GetDescriptor+0x2c>
     498:	81 30       	cpi	r24, 0x01	; 1
     49a:	18 f0       	brcs	.+6      	; 0x4a2 <CALLBACK_USB_GetDescriptor+0x26>
     49c:	82 30       	cpi	r24, 0x02	; 2
     49e:	89 f4       	brne	.+34     	; 0x4c2 <CALLBACK_USB_GetDescriptor+0x46>
     4a0:	06 c0       	rjmp	.+12     	; 0x4ae <CALLBACK_USB_GetDescriptor+0x32>
			{
				case 0x00:
					Address = &LanguageString;
					Size    = pgm_read_byte(&LanguageString.Header.Size);
     4a2:	e6 ef       	ldi	r30, 0xF6	; 246
     4a4:	f0 e0       	ldi	r31, 0x00	; 0
     4a6:	05 c0       	rjmp	.+10     	; 0x4b2 <CALLBACK_USB_GetDescriptor+0x36>
					break;
				case 0x01:
					Address = &ManufacturerString;
					Size    = pgm_read_byte(&ManufacturerString.Header.Size);
     4a8:	ec ed       	ldi	r30, 0xDC	; 220
     4aa:	f0 e0       	ldi	r31, 0x00	; 0
     4ac:	02 c0       	rjmp	.+4      	; 0x4b2 <CALLBACK_USB_GetDescriptor+0x36>
					break;
				case 0x02:
					Address = &ProductString;
					Size    = pgm_read_byte(&ProductString.Header.Size);
     4ae:	ec ea       	ldi	r30, 0xAC	; 172
     4b0:	f0 e0       	ldi	r31, 0x00	; 0
     4b2:	84 91       	lpm	r24, Z
     4b4:	90 e0       	ldi	r25, 0x00	; 0
					break;
     4b6:	09 c0       	rjmp	.+18     	; 0x4ca <CALLBACK_USB_GetDescriptor+0x4e>

	switch (DescriptorType)
	{
		case DTYPE_Device:
			Address = &DeviceDescriptor;
			Size    = sizeof(USB_Descriptor_Device_t);
     4b8:	82 e1       	ldi	r24, 0x12	; 18
     4ba:	90 e0       	ldi	r25, 0x00	; 0
	uint16_t    Size    = NO_DESCRIPTOR;

	switch (DescriptorType)
	{
		case DTYPE_Device:
			Address = &DeviceDescriptor;
     4bc:	e8 e3       	ldi	r30, 0x38	; 56
     4be:	f1 e0       	ldi	r31, 0x01	; 1
     4c0:	04 c0       	rjmp	.+8      	; 0x4ca <CALLBACK_USB_GetDescriptor+0x4e>
{
	const uint8_t  DescriptorType   = (wValue >> 8);
	const uint8_t  DescriptorNumber = (wValue & 0xFF);

	const void* Address = NULL;
	uint16_t    Size    = NO_DESCRIPTOR;
     4c2:	80 e0       	ldi	r24, 0x00	; 0
     4c4:	90 e0       	ldi	r25, 0x00	; 0
                                    const void** const DescriptorAddress)
{
	const uint8_t  DescriptorType   = (wValue >> 8);
	const uint8_t  DescriptorNumber = (wValue & 0xFF);

	const void* Address = NULL;
     4c6:	e0 e0       	ldi	r30, 0x00	; 0
     4c8:	f0 e0       	ldi	r31, 0x00	; 0
			}

			break;
	}

	*DescriptorAddress = Address;
     4ca:	da 01       	movw	r26, r20
     4cc:	11 96       	adiw	r26, 0x01	; 1
     4ce:	fc 93       	st	X, r31
     4d0:	ee 93       	st	-X, r30
	return Size;
}
     4d2:	08 95       	ret

000004d4 <Endpoint_Write_Stream_LE>:
#if defined(TEMPLATE_FUNC_NAME)

uint8_t TEMPLATE_FUNC_NAME (TEMPLATE_BUFFER_TYPE const Buffer,
                            uint16_t Length,
                            uint16_t* const BytesProcessed)
{
     4d4:	af 92       	push	r10
     4d6:	bf 92       	push	r11
     4d8:	cf 92       	push	r12
     4da:	df 92       	push	r13
     4dc:	ef 92       	push	r14
     4de:	ff 92       	push	r15
     4e0:	1f 93       	push	r17
     4e2:	cf 93       	push	r28
     4e4:	df 93       	push	r29
     4e6:	ec 01       	movw	r28, r24
     4e8:	7b 01       	movw	r14, r22
     4ea:	6a 01       	movw	r12, r20
	uint8_t* DataStream      = ((uint8_t*)Buffer + TEMPLATE_BUFFER_OFFSET(Length));
	uint16_t BytesInTransfer = 0;
	uint8_t  ErrorCode;

	if ((ErrorCode = Endpoint_WaitUntilReady()))
     4ec:	92 d1       	rcall	.+804    	; 0x812 <Endpoint_WaitUntilReady>
     4ee:	18 2f       	mov	r17, r24
     4f0:	88 23       	and	r24, r24
     4f2:	a1 f5       	brne	.+104    	; 0x55c <Endpoint_Write_Stream_LE+0x88>
     4f4:	c1 14       	cp	r12, r1
	  return ErrorCode;

	if (BytesProcessed != NULL)
     4f6:	d1 04       	cpc	r13, r1
     4f8:	39 f0       	breq	.+14     	; 0x508 <Endpoint_Write_Stream_LE+0x34>
     4fa:	f6 01       	movw	r30, r12
	{
		Length -= *BytesProcessed;
     4fc:	20 81       	ld	r18, Z
     4fe:	31 81       	ldd	r19, Z+1	; 0x01
     500:	e2 1a       	sub	r14, r18
     502:	f3 0a       	sbc	r15, r19
     504:	c2 0f       	add	r28, r18
		TEMPLATE_BUFFER_MOVE(DataStream, *BytesProcessed);
     506:	d3 1f       	adc	r29, r19
     508:	aa 24       	eor	r10, r10

uint8_t TEMPLATE_FUNC_NAME (TEMPLATE_BUFFER_TYPE const Buffer,
                            uint16_t Length,
                            uint16_t* const BytesProcessed)
{
	uint8_t* DataStream      = ((uint8_t*)Buffer + TEMPLATE_BUFFER_OFFSET(Length));
     50a:	bb 24       	eor	r11, r11
     50c:	22 c0       	rjmp	.+68     	; 0x552 <Endpoint_Write_Stream_LE+0x7e>
     50e:	80 91 e8 00 	lds	r24, 0x00E8
			 *          on its direction.
			 */
			static inline bool Endpoint_IsReadWriteAllowed(void) ATTR_WARN_UNUSED_RESULT ATTR_ALWAYS_INLINE;
			static inline bool Endpoint_IsReadWriteAllowed(void)
			{
				return ((UEINTX & (1 << RWAL)) ? true : false);
     512:	85 fd       	sbrc	r24, 5
		TEMPLATE_BUFFER_MOVE(DataStream, *BytesProcessed);
	}

	while (Length)
	{
		if (!(Endpoint_IsReadWriteAllowed()))
     514:	15 c0       	rjmp	.+42     	; 0x540 <Endpoint_Write_Stream_LE+0x6c>
     516:	80 91 e8 00 	lds	r24, 0x00E8
			 */
			static inline void Endpoint_ClearIN(void) ATTR_ALWAYS_INLINE;
			static inline void Endpoint_ClearIN(void)
			{
				#if !defined(CONTROL_ONLY_DEVICE)
					UEINTX &= ~((1 << TXINI) | (1 << FIFOCON));
     51a:	8e 77       	andi	r24, 0x7E	; 126
     51c:	80 93 e8 00 	sts	0x00E8, r24
     520:	c1 14       	cp	r12, r1

			#if !defined(INTERRUPT_CONTROL_ENDPOINT)
			USB_USBTask();
			#endif

			if (BytesProcessed != NULL)
     522:	d1 04       	cpc	r13, r1
     524:	49 f0       	breq	.+18     	; 0x538 <Endpoint_Write_Stream_LE+0x64>
     526:	f6 01       	movw	r30, r12
			{
				*BytesProcessed += BytesInTransfer;
     528:	80 81       	ld	r24, Z
     52a:	91 81       	ldd	r25, Z+1	; 0x01
     52c:	8a 0d       	add	r24, r10
     52e:	9b 1d       	adc	r25, r11
     530:	91 83       	std	Z+1, r25	; 0x01
     532:	80 83       	st	Z, r24
     534:	15 e0       	ldi	r17, 0x05	; 5
				return ENDPOINT_RWSTREAM_IncompleteTransfer;
     536:	12 c0       	rjmp	.+36     	; 0x55c <Endpoint_Write_Stream_LE+0x88>
     538:	6c d1       	rcall	.+728    	; 0x812 <Endpoint_WaitUntilReady>
			}

			if ((ErrorCode = Endpoint_WaitUntilReady()))
     53a:	88 23       	and	r24, r24
     53c:	51 f0       	breq	.+20     	; 0x552 <Endpoint_Write_Stream_LE+0x7e>
     53e:	0d c0       	rjmp	.+26     	; 0x55a <Endpoint_Write_Stream_LE+0x86>
     540:	89 91       	ld	r24, Y+
     542:	80 93 f1 00 	sts	0x00F1, r24
			 *  \param[in] Data  Data to write into the the currently selected endpoint's FIFO buffer.
			 */
			static inline void Endpoint_Write_8(const uint8_t Data) ATTR_ALWAYS_INLINE;
			static inline void Endpoint_Write_8(const uint8_t Data)
			{
				UEDATX = Data;
     546:	08 94       	sec
     548:	e1 08       	sbc	r14, r1
		}
		else
		{
			TEMPLATE_TRANSFER_BYTE(DataStream);
			TEMPLATE_BUFFER_MOVE(DataStream, 1);
			Length--;
     54a:	f1 08       	sbc	r15, r1
     54c:	08 94       	sec
     54e:	a1 1c       	adc	r10, r1
			BytesInTransfer++;
     550:	b1 1c       	adc	r11, r1
     552:	e1 14       	cp	r14, r1
     554:	f1 04       	cpc	r15, r1
	{
		Length -= *BytesProcessed;
		TEMPLATE_BUFFER_MOVE(DataStream, *BytesProcessed);
	}

	while (Length)
     556:	d9 f6       	brne	.-74     	; 0x50e <Endpoint_Write_Stream_LE+0x3a>
     558:	01 c0       	rjmp	.+2      	; 0x55c <Endpoint_Write_Stream_LE+0x88>
     55a:	18 2f       	mov	r17, r24
     55c:	81 2f       	mov	r24, r17
			{
				*BytesProcessed += BytesInTransfer;
				return ENDPOINT_RWSTREAM_IncompleteTransfer;
			}

			if ((ErrorCode = Endpoint_WaitUntilReady()))
     55e:	df 91       	pop	r29
			BytesInTransfer++;
		}
	}

	return ENDPOINT_RWSTREAM_NoError;
}
     560:	cf 91       	pop	r28
     562:	1f 91       	pop	r17
     564:	ff 90       	pop	r15
     566:	ef 90       	pop	r14
     568:	df 90       	pop	r13
     56a:	cf 90       	pop	r12
     56c:	bf 90       	pop	r11
     56e:	af 90       	pop	r10
     570:	08 95       	ret

00000572 <Endpoint_Write_Control_Stream_LE>:
     572:	40 91 b0 02 	lds	r20, 0x02B0
                            uint16_t Length)
{
	uint8_t* DataStream     = ((uint8_t*)Buffer + TEMPLATE_BUFFER_OFFSET(Length));
	bool     LastPacketFull = false;

	if (Length > USB_ControlRequest.wLength)
     576:	50 91 b1 02 	lds	r21, 0x02B1
     57a:	46 17       	cp	r20, r22
     57c:	57 07       	cpc	r21, r23
     57e:	20 f4       	brcc	.+8      	; 0x588 <Endpoint_Write_Control_Stream_LE+0x16>
     580:	ba 01       	movw	r22, r20
     582:	fc 01       	movw	r30, r24
     584:	40 e0       	ldi	r20, 0x00	; 0
     586:	3b c0       	rjmp	.+118    	; 0x5fe <Endpoint_Write_Control_Stream_LE+0x8c>
	  Length = USB_ControlRequest.wLength;
	else if (!(Length))
     588:	61 15       	cp	r22, r1
     58a:	71 05       	cpc	r23, r1
     58c:	d1 f7       	brne	.-12     	; 0x582 <Endpoint_Write_Control_Stream_LE+0x10>
			 */
			static inline void Endpoint_ClearIN(void) ATTR_ALWAYS_INLINE;
			static inline void Endpoint_ClearIN(void)
			{
				#if !defined(CONTROL_ONLY_DEVICE)
					UEINTX &= ~((1 << TXINI) | (1 << FIFOCON));
     58e:	40 91 e8 00 	lds	r20, 0x00E8
     592:	4e 77       	andi	r20, 0x7E	; 126
     594:	40 93 e8 00 	sts	0x00E8, r20
     598:	f4 cf       	rjmp	.-24     	; 0x582 <Endpoint_Write_Control_Stream_LE+0x10>
	  Endpoint_ClearIN();

	while (Length || LastPacketFull)
	{
		uint8_t USB_DeviceState_LCL = USB_DeviceState;
     59a:	8e b3       	in	r24, 0x1e	; 30

		if (USB_DeviceState_LCL == DEVICE_STATE_Unattached)
     59c:	88 23       	and	r24, r24
     59e:	09 f4       	brne	.+2      	; 0x5a2 <Endpoint_Write_Control_Stream_LE+0x30>
     5a0:	43 c0       	rjmp	.+134    	; 0x628 <Endpoint_Write_Control_Stream_LE+0xb6>
		  return ENDPOINT_RWCSTREAM_DeviceDisconnected;
		else if (USB_DeviceState_LCL == DEVICE_STATE_Suspended)
     5a2:	85 30       	cpi	r24, 0x05	; 5
     5a4:	e9 f1       	breq	.+122    	; 0x620 <Endpoint_Write_Control_Stream_LE+0xae>
			 *  \return Boolean \c true if the selected endpoint has received a SETUP packet, \c false otherwise.
			 */
			static inline bool Endpoint_IsSETUPReceived(void) ATTR_WARN_UNUSED_RESULT ATTR_ALWAYS_INLINE;
			static inline bool Endpoint_IsSETUPReceived(void)
			{
				return ((UEINTX & (1 << RXSTPI)) ? true : false);
     5a6:	80 91 e8 00 	lds	r24, 0x00E8
		  return ENDPOINT_RWCSTREAM_BusSuspended;
		else if (Endpoint_IsSETUPReceived())
     5aa:	83 fd       	sbrc	r24, 3
     5ac:	3b c0       	rjmp	.+118    	; 0x624 <Endpoint_Write_Control_Stream_LE+0xb2>
			 *  \return Boolean \c true if current endpoint is has received an OUT packet, \c false otherwise.
			 */
			static inline bool Endpoint_IsOUTReceived(void) ATTR_WARN_UNUSED_RESULT ATTR_ALWAYS_INLINE;
			static inline bool Endpoint_IsOUTReceived(void)
			{
				return ((UEINTX & (1 << RXOUTI)) ? true : false);
     5ae:	80 91 e8 00 	lds	r24, 0x00E8
		  return ENDPOINT_RWCSTREAM_HostAborted;
		else if (Endpoint_IsOUTReceived())
     5b2:	82 fd       	sbrc	r24, 2
     5b4:	2f c0       	rjmp	.+94     	; 0x614 <Endpoint_Write_Control_Stream_LE+0xa2>
			 *  \return Boolean \c true if the current endpoint is ready for an IN packet, \c false otherwise.
			 */
			static inline bool Endpoint_IsINReady(void) ATTR_WARN_UNUSED_RESULT ATTR_ALWAYS_INLINE;
			static inline bool Endpoint_IsINReady(void)
			{
				return ((UEINTX & (1 << TXINI)) ? true : false);
     5b6:	80 91 e8 00 	lds	r24, 0x00E8
		  break;

		if (Endpoint_IsINReady())
     5ba:	80 ff       	sbrs	r24, 0
     5bc:	20 c0       	rjmp	.+64     	; 0x5fe <Endpoint_Write_Control_Stream_LE+0x8c>
			static inline uint16_t Endpoint_BytesInEndpoint(void)
			{
				#if (defined(USB_SERIES_6_AVR) || defined(USB_SERIES_7_AVR))
					return UEBCX;
				#elif defined(USB_SERIES_4_AVR)
					return (((uint16_t)UEBCHX << 8) | UEBCLX);
     5be:	90 91 f3 00 	lds	r25, 0x00F3
     5c2:	80 91 f2 00 	lds	r24, 0x00F2
     5c6:	39 2f       	mov	r19, r25
     5c8:	20 e0       	ldi	r18, 0x00	; 0
     5ca:	90 e0       	ldi	r25, 0x00	; 0
     5cc:	82 2b       	or	r24, r18
     5ce:	93 2b       	or	r25, r19
		{
			uint16_t BytesInEndpoint = Endpoint_BytesInEndpoint();

			while (Length && (BytesInEndpoint < USB_Device_ControlEndpointSize))
     5d0:	06 c0       	rjmp	.+12     	; 0x5de <Endpoint_Write_Control_Stream_LE+0x6c>
			{
				TEMPLATE_TRANSFER_BYTE(DataStream);
     5d2:	41 91       	ld	r20, Z+
			 *  \param[in] Data  Data to write into the the currently selected endpoint's FIFO buffer.
			 */
			static inline void Endpoint_Write_8(const uint8_t Data) ATTR_ALWAYS_INLINE;
			static inline void Endpoint_Write_8(const uint8_t Data)
			{
				UEDATX = Data;
     5d4:	40 93 f1 00 	sts	0x00F1, r20
				TEMPLATE_BUFFER_MOVE(DataStream, 1);
				Length--;
     5d8:	61 50       	subi	r22, 0x01	; 1
     5da:	70 40       	sbci	r23, 0x00	; 0
				BytesInEndpoint++;
     5dc:	01 96       	adiw	r24, 0x01	; 1

		if (Endpoint_IsINReady())
		{
			uint16_t BytesInEndpoint = Endpoint_BytesInEndpoint();

			while (Length && (BytesInEndpoint < USB_Device_ControlEndpointSize))
     5de:	61 15       	cp	r22, r1
     5e0:	71 05       	cpc	r23, r1
     5e2:	19 f0       	breq	.+6      	; 0x5ea <Endpoint_Write_Control_Stream_LE+0x78>
     5e4:	88 30       	cpi	r24, 0x08	; 8
     5e6:	91 05       	cpc	r25, r1
     5e8:	a0 f3       	brcs	.-24     	; 0x5d2 <Endpoint_Write_Control_Stream_LE+0x60>
				TEMPLATE_BUFFER_MOVE(DataStream, 1);
				Length--;
				BytesInEndpoint++;
			}

			LastPacketFull = (BytesInEndpoint == USB_Device_ControlEndpointSize);
     5ea:	41 e0       	ldi	r20, 0x01	; 1
     5ec:	88 30       	cpi	r24, 0x08	; 8
     5ee:	91 05       	cpc	r25, r1
     5f0:	09 f0       	breq	.+2      	; 0x5f4 <Endpoint_Write_Control_Stream_LE+0x82>
     5f2:	40 e0       	ldi	r20, 0x00	; 0
			 */
			static inline void Endpoint_ClearIN(void) ATTR_ALWAYS_INLINE;
			static inline void Endpoint_ClearIN(void)
			{
				#if !defined(CONTROL_ONLY_DEVICE)
					UEINTX &= ~((1 << TXINI) | (1 << FIFOCON));
     5f4:	80 91 e8 00 	lds	r24, 0x00E8
     5f8:	8e 77       	andi	r24, 0x7E	; 126
     5fa:	80 93 e8 00 	sts	0x00E8, r24
	if (Length > USB_ControlRequest.wLength)
	  Length = USB_ControlRequest.wLength;
	else if (!(Length))
	  Endpoint_ClearIN();

	while (Length || LastPacketFull)
     5fe:	61 15       	cp	r22, r1
     600:	71 05       	cpc	r23, r1
     602:	59 f6       	brne	.-106    	; 0x59a <Endpoint_Write_Control_Stream_LE+0x28>
     604:	44 23       	and	r20, r20
     606:	49 f6       	brne	.-110    	; 0x59a <Endpoint_Write_Control_Stream_LE+0x28>
     608:	05 c0       	rjmp	.+10     	; 0x614 <Endpoint_Write_Control_Stream_LE+0xa2>
		}
	}

	while (!(Endpoint_IsOUTReceived()))
	{
		uint8_t USB_DeviceState_LCL = USB_DeviceState;
     60a:	8e b3       	in	r24, 0x1e	; 30

		if (USB_DeviceState_LCL == DEVICE_STATE_Unattached)
     60c:	88 23       	and	r24, r24
     60e:	61 f0       	breq	.+24     	; 0x628 <Endpoint_Write_Control_Stream_LE+0xb6>
		  return ENDPOINT_RWCSTREAM_DeviceDisconnected;
		else if (USB_DeviceState_LCL == DEVICE_STATE_Suspended)
     610:	85 30       	cpi	r24, 0x05	; 5
     612:	61 f0       	breq	.+24     	; 0x62c <Endpoint_Write_Control_Stream_LE+0xba>
			 *  \return Boolean \c true if current endpoint is has received an OUT packet, \c false otherwise.
			 */
			static inline bool Endpoint_IsOUTReceived(void) ATTR_WARN_UNUSED_RESULT ATTR_ALWAYS_INLINE;
			static inline bool Endpoint_IsOUTReceived(void)
			{
				return ((UEINTX & (1 << RXOUTI)) ? true : false);
     614:	80 91 e8 00 	lds	r24, 0x00E8
			LastPacketFull = (BytesInEndpoint == USB_Device_ControlEndpointSize);
			Endpoint_ClearIN();
		}
	}

	while (!(Endpoint_IsOUTReceived()))
     618:	82 ff       	sbrs	r24, 2
     61a:	f7 cf       	rjmp	.-18     	; 0x60a <Endpoint_Write_Control_Stream_LE+0x98>
		  return ENDPOINT_RWCSTREAM_DeviceDisconnected;
		else if (USB_DeviceState_LCL == DEVICE_STATE_Suspended)
		  return ENDPOINT_RWCSTREAM_BusSuspended;
	}

	return ENDPOINT_RWCSTREAM_NoError;
     61c:	80 e0       	ldi	r24, 0x00	; 0
     61e:	08 95       	ret
		uint8_t USB_DeviceState_LCL = USB_DeviceState;

		if (USB_DeviceState_LCL == DEVICE_STATE_Unattached)
		  return ENDPOINT_RWCSTREAM_DeviceDisconnected;
		else if (USB_DeviceState_LCL == DEVICE_STATE_Suspended)
		  return ENDPOINT_RWCSTREAM_BusSuspended;
     620:	83 e0       	ldi	r24, 0x03	; 3
     622:	08 95       	ret
		else if (Endpoint_IsSETUPReceived())
		  return ENDPOINT_RWCSTREAM_HostAborted;
     624:	81 e0       	ldi	r24, 0x01	; 1
     626:	08 95       	ret
	while (!(Endpoint_IsOUTReceived()))
	{
		uint8_t USB_DeviceState_LCL = USB_DeviceState;

		if (USB_DeviceState_LCL == DEVICE_STATE_Unattached)
		  return ENDPOINT_RWCSTREAM_DeviceDisconnected;
     628:	82 e0       	ldi	r24, 0x02	; 2
     62a:	08 95       	ret
		else if (USB_DeviceState_LCL == DEVICE_STATE_Suspended)
		  return ENDPOINT_RWCSTREAM_BusSuspended;
     62c:	83 e0       	ldi	r24, 0x03	; 3
	}

	return ENDPOINT_RWCSTREAM_NoError;
}
     62e:	08 95       	ret

00000630 <Endpoint_Write_Control_PStream_LE>:
                            uint16_t Length)
{
	uint8_t* DataStream     = ((uint8_t*)Buffer + TEMPLATE_BUFFER_OFFSET(Length));
	bool     LastPacketFull = false;

	if (Length > USB_ControlRequest.wLength)
     630:	40 91 b0 02 	lds	r20, 0x02B0
     634:	50 91 b1 02 	lds	r21, 0x02B1
     638:	46 17       	cp	r20, r22
     63a:	57 07       	cpc	r21, r23
     63c:	20 f4       	brcc	.+8      	; 0x646 <Endpoint_Write_Control_PStream_LE+0x16>
     63e:	ba 01       	movw	r22, r20
     640:	fc 01       	movw	r30, r24
     642:	40 e0       	ldi	r20, 0x00	; 0
     644:	3d c0       	rjmp	.+122    	; 0x6c0 <Endpoint_Write_Control_PStream_LE+0x90>
	  Length = USB_ControlRequest.wLength;
	else if (!(Length))
     646:	61 15       	cp	r22, r1
     648:	71 05       	cpc	r23, r1
     64a:	d1 f7       	brne	.-12     	; 0x640 <Endpoint_Write_Control_PStream_LE+0x10>
			 */
			static inline void Endpoint_ClearIN(void) ATTR_ALWAYS_INLINE;
			static inline void Endpoint_ClearIN(void)
			{
				#if !defined(CONTROL_ONLY_DEVICE)
					UEINTX &= ~((1 << TXINI) | (1 << FIFOCON));
     64c:	40 91 e8 00 	lds	r20, 0x00E8
     650:	4e 77       	andi	r20, 0x7E	; 126
     652:	40 93 e8 00 	sts	0x00E8, r20
     656:	f4 cf       	rjmp	.-24     	; 0x640 <Endpoint_Write_Control_PStream_LE+0x10>
	  Endpoint_ClearIN();

	while (Length || LastPacketFull)
	{
		uint8_t USB_DeviceState_LCL = USB_DeviceState;
     658:	8e b3       	in	r24, 0x1e	; 30

		if (USB_DeviceState_LCL == DEVICE_STATE_Unattached)
     65a:	88 23       	and	r24, r24
     65c:	09 f4       	brne	.+2      	; 0x660 <Endpoint_Write_Control_PStream_LE+0x30>
     65e:	45 c0       	rjmp	.+138    	; 0x6ea <Endpoint_Write_Control_PStream_LE+0xba>
		  return ENDPOINT_RWCSTREAM_DeviceDisconnected;
		else if (USB_DeviceState_LCL == DEVICE_STATE_Suspended)
     660:	85 30       	cpi	r24, 0x05	; 5
     662:	09 f4       	brne	.+2      	; 0x666 <Endpoint_Write_Control_PStream_LE+0x36>
     664:	3e c0       	rjmp	.+124    	; 0x6e2 <Endpoint_Write_Control_PStream_LE+0xb2>
			 *  \return Boolean \c true if the selected endpoint has received a SETUP packet, \c false otherwise.
			 */
			static inline bool Endpoint_IsSETUPReceived(void) ATTR_WARN_UNUSED_RESULT ATTR_ALWAYS_INLINE;
			static inline bool Endpoint_IsSETUPReceived(void)
			{
				return ((UEINTX & (1 << RXSTPI)) ? true : false);
     666:	80 91 e8 00 	lds	r24, 0x00E8
		  return ENDPOINT_RWCSTREAM_BusSuspended;
		else if (Endpoint_IsSETUPReceived())
     66a:	83 fd       	sbrc	r24, 3
     66c:	3c c0       	rjmp	.+120    	; 0x6e6 <Endpoint_Write_Control_PStream_LE+0xb6>
			 *  \return Boolean \c true if current endpoint is has received an OUT packet, \c false otherwise.
			 */
			static inline bool Endpoint_IsOUTReceived(void) ATTR_WARN_UNUSED_RESULT ATTR_ALWAYS_INLINE;
			static inline bool Endpoint_IsOUTReceived(void)
			{
				return ((UEINTX & (1 << RXOUTI)) ? true : false);
     66e:	80 91 e8 00 	lds	r24, 0x00E8
		  return ENDPOINT_RWCSTREAM_HostAborted;
		else if (Endpoint_IsOUTReceived())
     672:	82 fd       	sbrc	r24, 2
     674:	30 c0       	rjmp	.+96     	; 0x6d6 <Endpoint_Write_Control_PStream_LE+0xa6>
			 *  \return Boolean \c true if the current endpoint is ready for an IN packet, \c false otherwise.
			 */
			static inline bool Endpoint_IsINReady(void) ATTR_WARN_UNUSED_RESULT ATTR_ALWAYS_INLINE;
			static inline bool Endpoint_IsINReady(void)
			{
				return ((UEINTX & (1 << TXINI)) ? true : false);
     676:	80 91 e8 00 	lds	r24, 0x00E8
		  break;

		if (Endpoint_IsINReady())
     67a:	80 ff       	sbrs	r24, 0
     67c:	21 c0       	rjmp	.+66     	; 0x6c0 <Endpoint_Write_Control_PStream_LE+0x90>
			static inline uint16_t Endpoint_BytesInEndpoint(void)
			{
				#if (defined(USB_SERIES_6_AVR) || defined(USB_SERIES_7_AVR))
					return UEBCX;
				#elif defined(USB_SERIES_4_AVR)
					return (((uint16_t)UEBCHX << 8) | UEBCLX);
     67e:	90 91 f3 00 	lds	r25, 0x00F3
     682:	80 91 f2 00 	lds	r24, 0x00F2
     686:	39 2f       	mov	r19, r25
     688:	20 e0       	ldi	r18, 0x00	; 0
     68a:	90 e0       	ldi	r25, 0x00	; 0
     68c:	82 2b       	or	r24, r18
     68e:	93 2b       	or	r25, r19
		{
			uint16_t BytesInEndpoint = Endpoint_BytesInEndpoint();

			while (Length && (BytesInEndpoint < USB_Device_ControlEndpointSize))
     690:	07 c0       	rjmp	.+14     	; 0x6a0 <Endpoint_Write_Control_PStream_LE+0x70>
			{
				TEMPLATE_TRANSFER_BYTE(DataStream);
     692:	44 91       	lpm	r20, Z
			 *  \param[in] Data  Data to write into the the currently selected endpoint's FIFO buffer.
			 */
			static inline void Endpoint_Write_8(const uint8_t Data) ATTR_ALWAYS_INLINE;
			static inline void Endpoint_Write_8(const uint8_t Data)
			{
				UEDATX = Data;
     694:	40 93 f1 00 	sts	0x00F1, r20
				TEMPLATE_BUFFER_MOVE(DataStream, 1);
     698:	31 96       	adiw	r30, 0x01	; 1
				Length--;
     69a:	61 50       	subi	r22, 0x01	; 1
     69c:	70 40       	sbci	r23, 0x00	; 0
				BytesInEndpoint++;
     69e:	01 96       	adiw	r24, 0x01	; 1

		if (Endpoint_IsINReady())
		{
			uint16_t BytesInEndpoint = Endpoint_BytesInEndpoint();

			while (Length && (BytesInEndpoint < USB_Device_ControlEndpointSize))
     6a0:	61 15       	cp	r22, r1
     6a2:	71 05       	cpc	r23, r1
     6a4:	19 f0       	breq	.+6      	; 0x6ac <Endpoint_Write_Control_PStream_LE+0x7c>
     6a6:	88 30       	cpi	r24, 0x08	; 8
     6a8:	91 05       	cpc	r25, r1
     6aa:	98 f3       	brcs	.-26     	; 0x692 <Endpoint_Write_Control_PStream_LE+0x62>
				TEMPLATE_BUFFER_MOVE(DataStream, 1);
				Length--;
				BytesInEndpoint++;
			}

			LastPacketFull = (BytesInEndpoint == USB_Device_ControlEndpointSize);
     6ac:	41 e0       	ldi	r20, 0x01	; 1
     6ae:	88 30       	cpi	r24, 0x08	; 8
     6b0:	91 05       	cpc	r25, r1
     6b2:	09 f0       	breq	.+2      	; 0x6b6 <Endpoint_Write_Control_PStream_LE+0x86>
     6b4:	40 e0       	ldi	r20, 0x00	; 0
			 */
			static inline void Endpoint_ClearIN(void) ATTR_ALWAYS_INLINE;
			static inline void Endpoint_ClearIN(void)
			{
				#if !defined(CONTROL_ONLY_DEVICE)
					UEINTX &= ~((1 << TXINI) | (1 << FIFOCON));
     6b6:	80 91 e8 00 	lds	r24, 0x00E8
     6ba:	8e 77       	andi	r24, 0x7E	; 126
     6bc:	80 93 e8 00 	sts	0x00E8, r24
	if (Length > USB_ControlRequest.wLength)
	  Length = USB_ControlRequest.wLength;
	else if (!(Length))
	  Endpoint_ClearIN();

	while (Length || LastPacketFull)
     6c0:	61 15       	cp	r22, r1
     6c2:	71 05       	cpc	r23, r1
     6c4:	49 f6       	brne	.-110    	; 0x658 <Endpoint_Write_Control_PStream_LE+0x28>
     6c6:	44 23       	and	r20, r20
     6c8:	39 f6       	brne	.-114    	; 0x658 <Endpoint_Write_Control_PStream_LE+0x28>
     6ca:	05 c0       	rjmp	.+10     	; 0x6d6 <Endpoint_Write_Control_PStream_LE+0xa6>
		}
	}

	while (!(Endpoint_IsOUTReceived()))
	{
		uint8_t USB_DeviceState_LCL = USB_DeviceState;
     6cc:	8e b3       	in	r24, 0x1e	; 30

		if (USB_DeviceState_LCL == DEVICE_STATE_Unattached)
     6ce:	88 23       	and	r24, r24
     6d0:	61 f0       	breq	.+24     	; 0x6ea <Endpoint_Write_Control_PStream_LE+0xba>
		  return ENDPOINT_RWCSTREAM_DeviceDisconnected;
		else if (USB_DeviceState_LCL == DEVICE_STATE_Suspended)
     6d2:	85 30       	cpi	r24, 0x05	; 5
     6d4:	61 f0       	breq	.+24     	; 0x6ee <Endpoint_Write_Control_PStream_LE+0xbe>
			 *  \return Boolean \c true if current endpoint is has received an OUT packet, \c false otherwise.
			 */
			static inline bool Endpoint_IsOUTReceived(void) ATTR_WARN_UNUSED_RESULT ATTR_ALWAYS_INLINE;
			static inline bool Endpoint_IsOUTReceived(void)
			{
				return ((UEINTX & (1 << RXOUTI)) ? true : false);
     6d6:	80 91 e8 00 	lds	r24, 0x00E8
			LastPacketFull = (BytesInEndpoint == USB_Device_ControlEndpointSize);
			Endpoint_ClearIN();
		}
	}

	while (!(Endpoint_IsOUTReceived()))
     6da:	82 ff       	sbrs	r24, 2
     6dc:	f7 cf       	rjmp	.-18     	; 0x6cc <Endpoint_Write_Control_PStream_LE+0x9c>
		  return ENDPOINT_RWCSTREAM_DeviceDisconnected;
		else if (USB_DeviceState_LCL == DEVICE_STATE_Suspended)
		  return ENDPOINT_RWCSTREAM_BusSuspended;
	}

	return ENDPOINT_RWCSTREAM_NoError;
     6de:	80 e0       	ldi	r24, 0x00	; 0
     6e0:	08 95       	ret
		uint8_t USB_DeviceState_LCL = USB_DeviceState;

		if (USB_DeviceState_LCL == DEVICE_STATE_Unattached)
		  return ENDPOINT_RWCSTREAM_DeviceDisconnected;
		else if (USB_DeviceState_LCL == DEVICE_STATE_Suspended)
		  return ENDPOINT_RWCSTREAM_BusSuspended;
     6e2:	83 e0       	ldi	r24, 0x03	; 3
     6e4:	08 95       	ret
		else if (Endpoint_IsSETUPReceived())
		  return ENDPOINT_RWCSTREAM_HostAborted;
     6e6:	81 e0       	ldi	r24, 0x01	; 1
     6e8:	08 95       	ret
	while (!(Endpoint_IsOUTReceived()))
	{
		uint8_t USB_DeviceState_LCL = USB_DeviceState;

		if (USB_DeviceState_LCL == DEVICE_STATE_Unattached)
		  return ENDPOINT_RWCSTREAM_DeviceDisconnected;
     6ea:	82 e0       	ldi	r24, 0x02	; 2
     6ec:	08 95       	ret
		else if (USB_DeviceState_LCL == DEVICE_STATE_Suspended)
		  return ENDPOINT_RWCSTREAM_BusSuspended;
     6ee:	83 e0       	ldi	r24, 0x03	; 3
	}

	return ENDPOINT_RWCSTREAM_NoError;
}
     6f0:	08 95       	ret

000006f2 <Endpoint_ConfigureEndpoint_Prv>:
	UECFG0X = UECFG0XData;
	UECFG1X = UECFG1XData;

	return Endpoint_IsConfigured();
#else
	for (uint8_t EPNum = Number; EPNum < ENDPOINT_TOTAL_ENDPOINTS; EPNum++)
     6f2:	98 2f       	mov	r25, r24
     6f4:	2a c0       	rjmp	.+84     	; 0x74a <Endpoint_ConfigureEndpoint_Prv+0x58>
			 */
			static inline void Endpoint_SelectEndpoint(const uint8_t Address) ATTR_ALWAYS_INLINE;
			static inline void Endpoint_SelectEndpoint(const uint8_t Address)
			{
				#if !defined(CONTROL_ONLY_DEVICE)
					UENUM = (Address & ENDPOINT_EPNUM_MASK);
     6f6:	90 93 e9 00 	sts	0x00E9, r25
		uint8_t UECFG1XTemp;
		uint8_t UEIENXTemp;

		Endpoint_SelectEndpoint(EPNum);

		if (EPNum == Number)
     6fa:	98 17       	cp	r25, r24
     6fc:	39 f0       	breq	.+14     	; 0x70c <Endpoint_ConfigureEndpoint_Prv+0x1a>
			UECFG1XTemp = UECFG1XData;
			UEIENXTemp  = 0;
		}
		else
		{
			UECFG0XTemp = UECFG0X;
     6fe:	70 91 ec 00 	lds	r23, 0x00EC
			UECFG1XTemp = UECFG1X;
     702:	20 91 ed 00 	lds	r18, 0x00ED
			UEIENXTemp  = UEIENX;
     706:	50 91 f0 00 	lds	r21, 0x00F0
     70a:	03 c0       	rjmp	.+6      	; 0x712 <Endpoint_ConfigureEndpoint_Prv+0x20>
		Endpoint_SelectEndpoint(EPNum);

		if (EPNum == Number)
		{
			UECFG0XTemp = UECFG0XData;
			UECFG1XTemp = UECFG1XData;
     70c:	24 2f       	mov	r18, r20

		Endpoint_SelectEndpoint(EPNum);

		if (EPNum == Number)
		{
			UECFG0XTemp = UECFG0XData;
     70e:	76 2f       	mov	r23, r22
			UECFG1XTemp = UECFG1XData;
			UEIENXTemp  = 0;
     710:	50 e0       	ldi	r21, 0x00	; 0
			UECFG0XTemp = UECFG0X;
			UECFG1XTemp = UECFG1X;
			UEIENXTemp  = UEIENX;
		}

		if (!(UECFG1XTemp & (1 << ALLOC)))
     712:	21 ff       	sbrs	r18, 1
     714:	19 c0       	rjmp	.+50     	; 0x748 <Endpoint_ConfigureEndpoint_Prv+0x56>
			 *  to and from a host.
			 */
			static inline void Endpoint_DisableEndpoint(void) ATTR_ALWAYS_INLINE;
			static inline void Endpoint_DisableEndpoint(void)
			{
				UECONX &= ~(1 << EPEN);
     716:	30 91 eb 00 	lds	r19, 0x00EB
     71a:	3e 7f       	andi	r19, 0xFE	; 254
     71c:	30 93 eb 00 	sts	0x00EB, r19
		  continue;

		Endpoint_DisableEndpoint();
		UECFG1X &= ~(1 << ALLOC);
     720:	30 91 ed 00 	lds	r19, 0x00ED
     724:	3d 7f       	andi	r19, 0xFD	; 253
     726:	30 93 ed 00 	sts	0x00ED, r19
			 *  \note Endpoints must first be configured properly via \ref Endpoint_ConfigureEndpoint().
			 */
			static inline void Endpoint_EnableEndpoint(void) ATTR_ALWAYS_INLINE;
			static inline void Endpoint_EnableEndpoint(void)
			{
				UECONX |= (1 << EPEN);
     72a:	30 91 eb 00 	lds	r19, 0x00EB
     72e:	31 60       	ori	r19, 0x01	; 1
     730:	30 93 eb 00 	sts	0x00EB, r19

		Endpoint_EnableEndpoint();
		UECFG0X = UECFG0XTemp;
     734:	70 93 ec 00 	sts	0x00EC, r23
		UECFG1X = UECFG1XTemp;
     738:	20 93 ed 00 	sts	0x00ED, r18
		UEIENX  = UEIENXTemp;
     73c:	50 93 f0 00 	sts	0x00F0, r21
			 *  \return Boolean \c true if the currently selected endpoint has been configured, \c false otherwise.
			 */
			static inline bool Endpoint_IsConfigured(void) ATTR_WARN_UNUSED_RESULT ATTR_ALWAYS_INLINE;
			static inline bool Endpoint_IsConfigured(void)
			{
				return ((UESTA0X & (1 << CFGOK)) ? true : false);
     740:	20 91 ee 00 	lds	r18, 0x00EE

		if (!(Endpoint_IsConfigured()))
     744:	27 ff       	sbrs	r18, 7
     746:	08 c0       	rjmp	.+16     	; 0x758 <Endpoint_ConfigureEndpoint_Prv+0x66>
	UECFG0X = UECFG0XData;
	UECFG1X = UECFG1XData;

	return Endpoint_IsConfigured();
#else
	for (uint8_t EPNum = Number; EPNum < ENDPOINT_TOTAL_ENDPOINTS; EPNum++)
     748:	9f 5f       	subi	r25, 0xFF	; 255
     74a:	97 30       	cpi	r25, 0x07	; 7
     74c:	a0 f2       	brcs	.-88     	; 0x6f6 <Endpoint_ConfigureEndpoint_Prv+0x4>
			 */
			static inline void Endpoint_SelectEndpoint(const uint8_t Address) ATTR_ALWAYS_INLINE;
			static inline void Endpoint_SelectEndpoint(const uint8_t Address)
			{
				#if !defined(CONTROL_ONLY_DEVICE)
					UENUM = (Address & ENDPOINT_EPNUM_MASK);
     74e:	8f 70       	andi	r24, 0x0F	; 15
     750:	80 93 e9 00 	sts	0x00E9, r24
		if (!(Endpoint_IsConfigured()))
		  return false;
	}

	Endpoint_SelectEndpoint(Number);
	return true;
     754:	81 e0       	ldi	r24, 0x01	; 1
     756:	08 95       	ret
		UECFG0X = UECFG0XTemp;
		UECFG1X = UECFG1XTemp;
		UEIENX  = UEIENXTemp;

		if (!(Endpoint_IsConfigured()))
		  return false;
     758:	80 e0       	ldi	r24, 0x00	; 0
	}

	Endpoint_SelectEndpoint(Number);
	return true;
#endif
}
     75a:	08 95       	ret

0000075c <Endpoint_ConfigureEndpointTable>:
uint8_t USB_Device_ControlEndpointSize = ENDPOINT_CONTROLEP_DEFAULT_SIZE;
#endif

bool Endpoint_ConfigureEndpointTable(const USB_Endpoint_Table_t* const Table,
                                     const uint8_t Entries)
{
     75c:	0f 93       	push	r16
     75e:	1f 93       	push	r17
     760:	cf 93       	push	r28
     762:	df 93       	push	r29
     764:	16 2f       	mov	r17, r22
	{
		if (!(Table[i].Address))
		  continue;
	
		if (!(Endpoint_ConfigureEndpoint(Table[i].Address, Table[i].Type, Table[i].Size, Table[i].Banks)))
		  return false;
     766:	ec 01       	movw	r28, r24
#endif

bool Endpoint_ConfigureEndpointTable(const USB_Endpoint_Table_t* const Table,
                                     const uint8_t Entries)
{
	for (uint8_t i = 0; i < Entries; i++)
     768:	00 e0       	ldi	r16, 0x00	; 0
     76a:	2a c0       	rjmp	.+84     	; 0x7c0 <Endpoint_ConfigureEndpointTable+0x64>
	{
		if (!(Table[i].Address))
     76c:	98 81       	ld	r25, Y
     76e:	99 23       	and	r25, r25
     770:	29 f1       	breq	.+74     	; 0x7bc <Endpoint_ConfigureEndpointTable+0x60>
		  continue;
	
		if (!(Endpoint_ConfigureEndpoint(Table[i].Address, Table[i].Type, Table[i].Size, Table[i].Banks)))
     772:	6b 81       	ldd	r22, Y+3	; 0x03
     774:	e9 81       	ldd	r30, Y+1	; 0x01
     776:	fa 81       	ldd	r31, Y+2	; 0x02
     778:	2c 81       	ldd	r18, Y+4	; 0x04
			static inline bool Endpoint_ConfigureEndpoint(const uint8_t Address,
			                                              const uint8_t Type,
			                                              const uint16_t Size,
			                                              const uint8_t Banks)
			{
				uint8_t Number = (Address & ENDPOINT_EPNUM_MASK);
     77a:	89 2f       	mov	r24, r25
     77c:	8f 70       	andi	r24, 0x0F	; 15

				if (Number >= ENDPOINT_TOTAL_ENDPOINTS)
     77e:	87 30       	cpi	r24, 0x07	; 7
     780:	18 f5       	brcc	.+70     	; 0x7c8 <Endpoint_ConfigureEndpointTable+0x6c>
				  return false;

				return Endpoint_ConfigureEndpoint_Prv(Number,
				                                      ((Type << EPTYPE0) | ((Address & ENDPOINT_DIR_IN) ? (1 << EPDIR) : 0)),
     782:	62 95       	swap	r22
     784:	66 0f       	add	r22, r22
     786:	66 0f       	add	r22, r22
     788:	60 7c       	andi	r22, 0xC0	; 192
     78a:	99 1f       	adc	r25, r25
     78c:	99 27       	eor	r25, r25
     78e:	99 1f       	adc	r25, r25
				uint8_t Number = (Address & ENDPOINT_EPNUM_MASK);

				if (Number >= ENDPOINT_TOTAL_ENDPOINTS)
				  return false;

				return Endpoint_ConfigureEndpoint_Prv(Number,
     790:	69 2b       	or	r22, r25
     792:	22 30       	cpi	r18, 0x02	; 2
     794:	10 f0       	brcs	.+4      	; 0x79a <Endpoint_ConfigureEndpointTable+0x3e>
     796:	96 e0       	ldi	r25, 0x06	; 6
     798:	01 c0       	rjmp	.+2      	; 0x79c <Endpoint_ConfigureEndpointTable+0x40>
     79a:	92 e0       	ldi	r25, 0x02	; 2
			static inline uint8_t Endpoint_BytesToEPSizeMask(const uint16_t Bytes) ATTR_WARN_UNUSED_RESULT ATTR_CONST
			                                                                       ATTR_ALWAYS_INLINE;
			static inline uint8_t Endpoint_BytesToEPSizeMask(const uint16_t Bytes)
			{
				uint8_t  MaskVal    = 0;
				uint16_t CheckBytes = 8;
     79c:	28 e0       	ldi	r18, 0x08	; 8
     79e:	30 e0       	ldi	r19, 0x00	; 0
		/* Inline Functions: */
			static inline uint8_t Endpoint_BytesToEPSizeMask(const uint16_t Bytes) ATTR_WARN_UNUSED_RESULT ATTR_CONST
			                                                                       ATTR_ALWAYS_INLINE;
			static inline uint8_t Endpoint_BytesToEPSizeMask(const uint16_t Bytes)
			{
				uint8_t  MaskVal    = 0;
     7a0:	40 e0       	ldi	r20, 0x00	; 0
     7a2:	03 c0       	rjmp	.+6      	; 0x7aa <Endpoint_ConfigureEndpointTable+0x4e>
				uint16_t CheckBytes = 8;

				while (CheckBytes < Bytes)
				{
					MaskVal++;
     7a4:	4f 5f       	subi	r20, 0xFF	; 255
					CheckBytes <<= 1;
     7a6:	22 0f       	add	r18, r18
     7a8:	33 1f       	adc	r19, r19
			static inline uint8_t Endpoint_BytesToEPSizeMask(const uint16_t Bytes)
			{
				uint8_t  MaskVal    = 0;
				uint16_t CheckBytes = 8;

				while (CheckBytes < Bytes)
     7aa:	2e 17       	cp	r18, r30
     7ac:	3f 07       	cpc	r19, r31
     7ae:	d0 f3       	brcs	.-12     	; 0x7a4 <Endpoint_ConfigureEndpointTable+0x48>
				{
					MaskVal++;
					CheckBytes <<= 1;
				}

				return (MaskVal << EPSIZE0);
     7b0:	42 95       	swap	r20
     7b2:	40 7f       	andi	r20, 0xF0	; 240
				uint8_t Number = (Address & ENDPOINT_EPNUM_MASK);

				if (Number >= ENDPOINT_TOTAL_ENDPOINTS)
				  return false;

				return Endpoint_ConfigureEndpoint_Prv(Number,
     7b4:	49 2b       	or	r20, r25
     7b6:	9d df       	rcall	.-198    	; 0x6f2 <Endpoint_ConfigureEndpoint_Prv>
     7b8:	88 23       	and	r24, r24
     7ba:	31 f0       	breq	.+12     	; 0x7c8 <Endpoint_ConfigureEndpointTable+0x6c>
     7bc:	0f 5f       	subi	r16, 0xFF	; 255
#endif

bool Endpoint_ConfigureEndpointTable(const USB_Endpoint_Table_t* const Table,
                                     const uint8_t Entries)
{
	for (uint8_t i = 0; i < Entries; i++)
     7be:	25 96       	adiw	r28, 0x05	; 5
     7c0:	01 17       	cp	r16, r17
     7c2:	a1 f6       	brne	.-88     	; 0x76c <Endpoint_ConfigureEndpointTable+0x10>
     7c4:	81 e0       	ldi	r24, 0x01	; 1
	
		if (!(Endpoint_ConfigureEndpoint(Table[i].Address, Table[i].Type, Table[i].Size, Table[i].Banks)))
		  return false;
	}
	
	return true;
     7c6:	01 c0       	rjmp	.+2      	; 0x7ca <Endpoint_ConfigureEndpointTable+0x6e>
     7c8:	80 e0       	ldi	r24, 0x00	; 0
	{
		if (!(Table[i].Address))
		  continue;
	
		if (!(Endpoint_ConfigureEndpoint(Table[i].Address, Table[i].Type, Table[i].Size, Table[i].Banks)))
		  return false;
     7ca:	df 91       	pop	r29
	}
	
	return true;
}
     7cc:	cf 91       	pop	r28
     7ce:	1f 91       	pop	r17
     7d0:	0f 91       	pop	r16
     7d2:	08 95       	ret

000007d4 <Endpoint_ClearStatusStage>:
     7d4:	80 91 aa 02 	lds	r24, 0x02AA
	}
}

void Endpoint_ClearStatusStage(void)
{
	if (USB_ControlRequest.bmRequestType & REQDIR_DEVICETOHOST)
     7d8:	87 ff       	sbrs	r24, 7
     7da:	11 c0       	rjmp	.+34     	; 0x7fe <Endpoint_ClearStatusStage+0x2a>
     7dc:	03 c0       	rjmp	.+6      	; 0x7e4 <Endpoint_ClearStatusStage+0x10>
	{
		while (!(Endpoint_IsOUTReceived()))
		{
			if (USB_DeviceState == DEVICE_STATE_Unattached)
     7de:	8e b3       	in	r24, 0x1e	; 30
     7e0:	88 23       	and	r24, r24
     7e2:	b1 f0       	breq	.+44     	; 0x810 <Endpoint_ClearStatusStage+0x3c>
			 *  \return Boolean \c true if current endpoint is has received an OUT packet, \c false otherwise.
			 */
			static inline bool Endpoint_IsOUTReceived(void) ATTR_WARN_UNUSED_RESULT ATTR_ALWAYS_INLINE;
			static inline bool Endpoint_IsOUTReceived(void)
			{
				return ((UEINTX & (1 << RXOUTI)) ? true : false);
     7e4:	80 91 e8 00 	lds	r24, 0x00E8

void Endpoint_ClearStatusStage(void)
{
	if (USB_ControlRequest.bmRequestType & REQDIR_DEVICETOHOST)
	{
		while (!(Endpoint_IsOUTReceived()))
     7e8:	82 ff       	sbrs	r24, 2
     7ea:	f9 cf       	rjmp	.-14     	; 0x7de <Endpoint_ClearStatusStage+0xa>
			 */
			static inline void Endpoint_ClearOUT(void) ATTR_ALWAYS_INLINE;
			static inline void Endpoint_ClearOUT(void)
			{
				#if !defined(CONTROL_ONLY_DEVICE)
					UEINTX &= ~((1 << RXOUTI) | (1 << FIFOCON));
     7ec:	80 91 e8 00 	lds	r24, 0x00E8
     7f0:	8b 77       	andi	r24, 0x7B	; 123
     7f2:	80 93 e8 00 	sts	0x00E8, r24
     7f6:	08 95       	ret
	}
	else
	{
		while (!(Endpoint_IsINReady()))
		{
			if (USB_DeviceState == DEVICE_STATE_Unattached)
     7f8:	8e b3       	in	r24, 0x1e	; 30
     7fa:	88 23       	and	r24, r24
     7fc:	49 f0       	breq	.+18     	; 0x810 <Endpoint_ClearStatusStage+0x3c>
			 *  \return Boolean \c true if the current endpoint is ready for an IN packet, \c false otherwise.
			 */
			static inline bool Endpoint_IsINReady(void) ATTR_WARN_UNUSED_RESULT ATTR_ALWAYS_INLINE;
			static inline bool Endpoint_IsINReady(void)
			{
				return ((UEINTX & (1 << TXINI)) ? true : false);
     7fe:	80 91 e8 00 	lds	r24, 0x00E8

		Endpoint_ClearOUT();
	}
	else
	{
		while (!(Endpoint_IsINReady()))
     802:	80 ff       	sbrs	r24, 0
     804:	f9 cf       	rjmp	.-14     	; 0x7f8 <Endpoint_ClearStatusStage+0x24>
			 */
			static inline void Endpoint_ClearIN(void) ATTR_ALWAYS_INLINE;
			static inline void Endpoint_ClearIN(void)
			{
				#if !defined(CONTROL_ONLY_DEVICE)
					UEINTX &= ~((1 << TXINI) | (1 << FIFOCON));
     806:	80 91 e8 00 	lds	r24, 0x00E8
     80a:	8e 77       	andi	r24, 0x7E	; 126
     80c:	80 93 e8 00 	sts	0x00E8, r24
     810:	08 95       	ret

00000812 <Endpoint_WaitUntilReady>:
			 *  \return Current USB frame number from the USB controller.
			 */
			static inline uint16_t USB_Device_GetFrameNumber(void) ATTR_ALWAYS_INLINE ATTR_WARN_UNUSED_RESULT;
			static inline uint16_t USB_Device_GetFrameNumber(void)
			{
				return UDFNUM;
     812:	80 91 e4 00 	lds	r24, 0x00E4
     816:	90 91 e5 00 	lds	r25, 0x00E5
     81a:	45 e6       	ldi	r20, 0x65	; 101
     81c:	01 c0       	rjmp	.+2      	; 0x820 <Endpoint_WaitUntilReady+0xe>
     81e:	c9 01       	movw	r24, r18
			 *  \return The currently selected endpoint's direction, as a \c ENDPOINT_DIR_* mask.
			 */
			static inline uint8_t Endpoint_GetEndpointDirection(void) ATTR_WARN_UNUSED_RESULT ATTR_ALWAYS_INLINE;
			static inline uint8_t Endpoint_GetEndpointDirection(void)
			{
				return (UECFG0X & (1 << EPDIR)) ? ENDPOINT_DIR_IN : ENDPOINT_DIR_OUT;
     820:	20 91 ec 00 	lds	r18, 0x00EC
     824:	20 ff       	sbrs	r18, 0
     826:	22 c0       	rjmp	.+68     	; 0x86c <Endpoint_WaitUntilReady+0x5a>
			 *  \return Boolean \c true if the current endpoint is ready for an IN packet, \c false otherwise.
			 */
			static inline bool Endpoint_IsINReady(void) ATTR_WARN_UNUSED_RESULT ATTR_ALWAYS_INLINE;
			static inline bool Endpoint_IsINReady(void)
			{
				return ((UEINTX & (1 << TXINI)) ? true : false);
     828:	20 91 e8 00 	lds	r18, 0x00E8

	for (;;)
	{
		if (Endpoint_GetEndpointDirection() == ENDPOINT_DIR_IN)
		{
			if (Endpoint_IsINReady())
     82c:	20 fd       	sbrc	r18, 0
     82e:	14 c0       	rjmp	.+40     	; 0x858 <Endpoint_WaitUntilReady+0x46>
		{
			if (Endpoint_IsOUTReceived())
			  return ENDPOINT_READYWAIT_NoError;
		}

		uint8_t USB_DeviceState_LCL = USB_DeviceState;
     830:	2e b3       	in	r18, 0x1e	; 30

		if (USB_DeviceState_LCL == DEVICE_STATE_Unattached)
     832:	22 23       	and	r18, r18
     834:	99 f0       	breq	.+38     	; 0x85c <Endpoint_WaitUntilReady+0x4a>
		  return ENDPOINT_READYWAIT_DeviceDisconnected;
		else if (USB_DeviceState_LCL == DEVICE_STATE_Suspended)
     836:	25 30       	cpi	r18, 0x05	; 5
     838:	99 f0       	breq	.+38     	; 0x860 <Endpoint_WaitUntilReady+0x4e>
			 *  \return Boolean \c true if the currently selected endpoint is stalled, \c false otherwise.
			 */
			static inline bool Endpoint_IsStalled(void) ATTR_WARN_UNUSED_RESULT ATTR_ALWAYS_INLINE;
			static inline bool Endpoint_IsStalled(void)
			{
				return ((UECONX & (1 << STALLRQ)) ? true : false);
     83a:	20 91 eb 00 	lds	r18, 0x00EB
		  return ENDPOINT_READYWAIT_BusSuspended;
		else if (Endpoint_IsStalled())
     83e:	25 fd       	sbrc	r18, 5
     840:	11 c0       	rjmp	.+34     	; 0x864 <Endpoint_WaitUntilReady+0x52>
     842:	20 91 e4 00 	lds	r18, 0x00E4
     846:	30 91 e5 00 	lds	r19, 0x00E5
		  return ENDPOINT_READYWAIT_EndpointStalled;

		uint16_t CurrentFrameNumber = USB_Device_GetFrameNumber();

		if (CurrentFrameNumber != PreviousFrameNumber)
     84a:	28 17       	cp	r18, r24
     84c:	39 07       	cpc	r19, r25
     84e:	41 f3       	breq	.-48     	; 0x820 <Endpoint_WaitUntilReady+0xe>
     850:	41 50       	subi	r20, 0x01	; 1
		{
			PreviousFrameNumber = CurrentFrameNumber;

			if (!(TimeoutMSRem--))
     852:	29 f7       	brne	.-54     	; 0x81e <Endpoint_WaitUntilReady+0xc>
			  return ENDPOINT_READYWAIT_Timeout;
     854:	84 e0       	ldi	r24, 0x04	; 4
     856:	08 95       	ret
	for (;;)
	{
		if (Endpoint_GetEndpointDirection() == ENDPOINT_DIR_IN)
		{
			if (Endpoint_IsINReady())
			  return ENDPOINT_READYWAIT_NoError;
     858:	80 e0       	ldi	r24, 0x00	; 0
     85a:	08 95       	ret
		}

		uint8_t USB_DeviceState_LCL = USB_DeviceState;

		if (USB_DeviceState_LCL == DEVICE_STATE_Unattached)
		  return ENDPOINT_READYWAIT_DeviceDisconnected;
     85c:	82 e0       	ldi	r24, 0x02	; 2
     85e:	08 95       	ret
		else if (USB_DeviceState_LCL == DEVICE_STATE_Suspended)
		  return ENDPOINT_READYWAIT_BusSuspended;
     860:	83 e0       	ldi	r24, 0x03	; 3
     862:	08 95       	ret
		else if (Endpoint_IsStalled())
		  return ENDPOINT_READYWAIT_EndpointStalled;
     864:	81 e0       	ldi	r24, 0x01	; 1
     866:	08 95       	ret
			  return ENDPOINT_READYWAIT_NoError;
		}
		else
		{
			if (Endpoint_IsOUTReceived())
			  return ENDPOINT_READYWAIT_NoError;
     868:	80 e0       	ldi	r24, 0x00	; 0

			if (!(TimeoutMSRem--))
			  return ENDPOINT_READYWAIT_Timeout;
		}
	}
}
     86a:	08 95       	ret
			 *  \return Boolean \c true if current endpoint is has received an OUT packet, \c false otherwise.
			 */
			static inline bool Endpoint_IsOUTReceived(void) ATTR_WARN_UNUSED_RESULT ATTR_ALWAYS_INLINE;
			static inline bool Endpoint_IsOUTReceived(void)
			{
				return ((UEINTX & (1 << RXOUTI)) ? true : false);
     86c:	20 91 e8 00 	lds	r18, 0x00E8
			if (Endpoint_IsINReady())
			  return ENDPOINT_READYWAIT_NoError;
		}
		else
		{
			if (Endpoint_IsOUTReceived())
     870:	22 ff       	sbrs	r18, 2
     872:	de cf       	rjmp	.-68     	; 0x830 <Endpoint_WaitUntilReady+0x1e>
     874:	f9 cf       	rjmp	.-14     	; 0x868 <Endpoint_WaitUntilReady+0x56>

00000876 <USB_ResetInterface>:

	USB_IsInitialized = false;
}

void USB_ResetInterface(void)
{
     876:	0f 93       	push	r16
     878:	1f 93       	push	r17
     87a:	cf 93       	push	r28
     87c:	df 93       	push	r29
	#if defined(USB_CAN_BE_BOTH)
	bool UIDModeSelectEnabled = ((UHWCON & (1 << UIDE)) != 0);
	#endif

	USB_INT_DisableAllInterrupts();
     87e:	4a d0       	rcall	.+148    	; 0x914 <USB_INT_DisableAllInterrupts>
     880:	51 d0       	rcall	.+162    	; 0x924 <USB_INT_ClearAllInterrupts>
	USB_INT_ClearAllInterrupts();
     882:	c8 ed       	ldi	r28, 0xD8	; 216
     884:	d0 e0       	ldi	r29, 0x00	; 0
			}

			static inline void USB_Controller_Reset(void) ATTR_ALWAYS_INLINE;
			static inline void USB_Controller_Reset(void)
			{
				USBCON &= ~(1 << USBE);
     886:	88 81       	ld	r24, Y
     888:	8f 77       	andi	r24, 0x7F	; 127
     88a:	88 83       	st	Y, r24
     88c:	88 81       	ld	r24, Y
     88e:	80 68       	ori	r24, 0x80	; 128
				USBCON |=  (1 << USBE);
     890:	88 83       	st	Y, r24
     892:	88 81       	ld	r24, Y
     894:	8f 7d       	andi	r24, 0xDF	; 223
			}

			static inline void USB_CLK_Unfreeze(void) ATTR_ALWAYS_INLINE;
			static inline void USB_CLK_Unfreeze(void)
			{
				USBCON &= ~(1 << FRZCLK);
     896:	88 83       	st	Y, r24
     898:	19 bc       	out	0x29, r1	; 41
     89a:	1e ba       	out	0x1e, r1	; 30
			}

			static inline void USB_PLL_Off(void) ATTR_ALWAYS_INLINE;
			static inline void USB_PLL_Off(void)
			{
				PLLCSR = 0;
     89c:	10 92 a6 02 	sts	0x02A6, r1

#if defined(USB_CAN_BE_DEVICE)
static void USB_Init_Device(void)
{
	USB_DeviceState                 = DEVICE_STATE_Unattached;
	USB_Device_ConfigurationNumber  = 0;
     8a0:	10 92 a8 02 	sts	0x02A8, r1

	#if !defined(NO_DEVICE_REMOTE_WAKEUP)
	USB_Device_RemoteWakeupEnabled  = false;
     8a4:	10 92 a7 02 	sts	0x02A7, r1
	#endif

	#if !defined(NO_DEVICE_SELF_POWER)
	USB_Device_CurrentlySelfPowered = false;
     8a8:	00 ee       	ldi	r16, 0xE0	; 224
     8aa:	10 e0       	ldi	r17, 0x00	; 0
			}

			static inline void USB_Device_SetFullSpeed(void) ATTR_ALWAYS_INLINE;
			static inline void USB_Device_SetFullSpeed(void)
			{
				UDCON &= ~(1 << LSM);
     8ac:	f8 01       	movw	r30, r16
     8ae:	80 81       	ld	r24, Z
     8b0:	8b 7f       	andi	r24, 0xFB	; 251
     8b2:	80 83       	st	Z, r24
     8b4:	88 81       	ld	r24, Y
     8b6:	81 60       	ori	r24, 0x01	; 1
			{
				switch (Interrupt)
				{
					#if (defined(USB_SERIES_4_AVR) || defined(USB_SERIES_6_AVR) || defined(USB_SERIES_7_AVR))
					case USB_INT_VBUSTI:
						USBCON |= (1 << VBUSTE);
     8b8:	88 83       	st	Y, r24
     8ba:	80 e0       	ldi	r24, 0x00	; 0
     8bc:	60 e0       	ldi	r22, 0x00	; 0
				uint8_t Number = (Address & ENDPOINT_EPNUM_MASK);

				if (Number >= ENDPOINT_TOTAL_ENDPOINTS)
				  return false;

				return Endpoint_ConfigureEndpoint_Prv(Number,
     8be:	42 e0       	ldi	r20, 0x02	; 2
     8c0:	18 df       	rcall	.-464    	; 0x6f2 <Endpoint_ConfigureEndpoint_Prv>
     8c2:	e1 ee       	ldi	r30, 0xE1	; 225
     8c4:	f0 e0       	ldi	r31, 0x00	; 0
     8c6:	80 81       	ld	r24, Z
					#if defined(USB_CAN_BE_DEVICE)
					case USB_INT_WAKEUPI:
						UDINT  &= ~(1 << WAKEUPI);
						break;
					case USB_INT_SUSPI:
						UDINT  &= ~(1 << SUSPI);
     8c8:	8e 7f       	andi	r24, 0xFE	; 254
     8ca:	80 83       	st	Z, r24
     8cc:	e2 ee       	ldi	r30, 0xE2	; 226
     8ce:	f0 e0       	ldi	r31, 0x00	; 0
     8d0:	80 81       	ld	r24, Z
					#if defined(USB_CAN_BE_DEVICE)
					case USB_INT_WAKEUPI:
						UDIEN  |= (1 << WAKEUPE);
						break;
					case USB_INT_SUSPI:
						UDIEN  |= (1 << SUSPE);
     8d2:	81 60       	ori	r24, 0x01	; 1
     8d4:	80 83       	st	Z, r24
     8d6:	80 81       	ld	r24, Z
     8d8:	88 60       	ori	r24, 0x08	; 8
     8da:	80 83       	st	Z, r24
						break;
					case USB_INT_EORSTI:
						UDIEN  |= (1 << EORSTE);
     8dc:	f8 01       	movw	r30, r16
     8de:	80 81       	ld	r24, Z
     8e0:	8e 7f       	andi	r24, 0xFE	; 254
			 *  register and despite the datasheet making no mention of its requirement in host mode.
			 */
			static inline void USB_Attach(void) ATTR_ALWAYS_INLINE;
			static inline void USB_Attach(void)
			{
				UDCON  &= ~(1 << DETACH);
     8e2:	80 83       	st	Z, r24
     8e4:	88 81       	ld	r24, Y
     8e6:	80 61       	ori	r24, 0x10	; 16
     8e8:	88 83       	st	Y, r24

			#if defined(USB_SERIES_4_AVR) || defined(USB_SERIES_6_AVR) || defined(USB_SERIES_7_AVR)
			static inline void USB_OTGPAD_On(void) ATTR_ALWAYS_INLINE;
			static inline void USB_OTGPAD_On(void)
			{
				USBCON |=  (1 << OTGPADE);
     8ea:	df 91       	pop	r29
     8ec:	cf 91       	pop	r28
     8ee:	1f 91       	pop	r17
	}

	#if (defined(USB_SERIES_4_AVR) || defined(USB_SERIES_6_AVR) || defined(USB_SERIES_7_AVR))
	USB_OTGPAD_On();
	#endif
}
     8f0:	0f 91       	pop	r16
     8f2:	08 95       	ret

000008f4 <USB_Init>:
     8f4:	e8 ed       	ldi	r30, 0xD8	; 216
     8f6:	f0 e0       	ldi	r31, 0x00	; 0
     8f8:	80 81       	ld	r24, Z
			}

			static inline void USB_OTGPAD_Off(void) ATTR_ALWAYS_INLINE;
			static inline void USB_OTGPAD_Off(void)
			{
				USBCON &= ~(1 << OTGPADE);
     8fa:	8f 7e       	andi	r24, 0xEF	; 239
     8fc:	80 83       	st	Z, r24

			static inline void USB_REG_On(void) ATTR_ALWAYS_INLINE;
			static inline void USB_REG_On(void)
			{
			#if defined(USB_SERIES_4_AVR) || defined(USB_SERIES_6_AVR) || defined(USB_SERIES_7_AVR)
				UHWCON |=  (1 << UVREGE);
     8fe:	e7 ed       	ldi	r30, 0xD7	; 215
     900:	f0 e0       	ldi	r31, 0x00	; 0
     902:	80 81       	ld	r24, Z
     904:	81 60       	ori	r24, 0x01	; 1
     906:	80 83       	st	Z, r24
	  USB_REG_Off();

	if (!(USB_Options & USB_OPT_MANUAL_PLL))
	{
		#if defined(USB_SERIES_4_AVR)
		PLLFRQ = (1 << PDIV2);
     908:	84 e0       	ldi	r24, 0x04	; 4
     90a:	82 bf       	out	0x32, r24	; 50
		UHWCON &= ~(1 << UIDE);
		USB_CurrentMode = Mode;
	}
	#endif

	USB_IsInitialized = true;
     90c:	81 e0       	ldi	r24, 0x01	; 1
     90e:	80 93 a9 02 	sts	0x02A9, r24

	USB_ResetInterface();
     912:	b1 cf       	rjmp	.-158    	; 0x876 <USB_ResetInterface>

00000914 <USB_INT_DisableAllInterrupts>:
void USB_INT_DisableAllInterrupts(void)
{
	#if defined(USB_SERIES_6_AVR) || defined(USB_SERIES_7_AVR)
	USBCON &= ~((1 << VBUSTE) | (1 << IDTE));
	#elif defined(USB_SERIES_4_AVR)
	USBCON &= ~(1 << VBUSTE);
     914:	e8 ed       	ldi	r30, 0xD8	; 216
     916:	f0 e0       	ldi	r31, 0x00	; 0
     918:	80 81       	ld	r24, Z
     91a:	8e 7f       	andi	r24, 0xFE	; 254
     91c:	80 83       	st	Z, r24
	#if defined(USB_CAN_BE_HOST)
	UHIEN   = 0;
	#endif

	#if defined(USB_CAN_BE_DEVICE)
	UDIEN   = 0;
     91e:	10 92 e2 00 	sts	0x00E2, r1
	#endif
}
     922:	08 95       	ret

00000924 <USB_INT_ClearAllInterrupts>:

void USB_INT_ClearAllInterrupts(void)
{
	#if defined(USB_SERIES_4_AVR) || defined(USB_SERIES_6_AVR) || defined(USB_SERIES_7_AVR)
	USBINT = 0;
     924:	10 92 da 00 	sts	0x00DA, r1
	#if defined(USB_CAN_BE_HOST)
	UHINT  = 0;
	#endif

	#if defined(USB_CAN_BE_DEVICE)
	UDINT  = 0;
     928:	10 92 e1 00 	sts	0x00E1, r1
	#endif
}
     92c:	08 95       	ret

0000092e <__vector_10>:

ISR(USB_GEN_vect, ISR_BLOCK)
{
     92e:	1f 92       	push	r1
     930:	0f 92       	push	r0
     932:	0f b6       	in	r0, 0x3f	; 63
     934:	0f 92       	push	r0
     936:	11 24       	eor	r1, r1
     938:	2f 93       	push	r18
     93a:	3f 93       	push	r19
     93c:	4f 93       	push	r20
     93e:	5f 93       	push	r21
     940:	6f 93       	push	r22
     942:	7f 93       	push	r23
     944:	8f 93       	push	r24
     946:	9f 93       	push	r25
     948:	af 93       	push	r26
     94a:	bf 93       	push	r27
     94c:	ef 93       	push	r30
     94e:	ff 93       	push	r31
					case USB_INT_SUSPI:
						return (UDINT  & (1 << SUSPI));
					case USB_INT_EORSTI:
						return (UDINT  & (1 << EORSTI));
					case USB_INT_SOFI:
						return (UDINT  & (1 << SOFI));
     950:	80 91 e1 00 	lds	r24, 0x00E1
	#if defined(USB_CAN_BE_DEVICE)
	#if !defined(NO_SOF_EVENTS)
	if (USB_INT_HasOccurred(USB_INT_SOFI) && USB_INT_IsEnabled(USB_INT_SOFI))
     954:	82 ff       	sbrs	r24, 2
     956:	0a c0       	rjmp	.+20     	; 0x96c <__vector_10+0x3e>
					case USB_INT_SUSPI:
						return (UDIEN  & (1 << SUSPE));
					case USB_INT_EORSTI:
						return (UDIEN  & (1 << EORSTE));
					case USB_INT_SOFI:
						return (UDIEN  & (1 << SOFE));
     958:	80 91 e2 00 	lds	r24, 0x00E2
     95c:	82 ff       	sbrs	r24, 2
     95e:	06 c0       	rjmp	.+12     	; 0x96c <__vector_10+0x3e>
						break;
					case USB_INT_EORSTI:
						UDINT  &= ~(1 << EORSTI);
						break;
					case USB_INT_SOFI:
						UDINT  &= ~(1 << SOFI);
     960:	80 91 e1 00 	lds	r24, 0x00E1
     964:	8b 7f       	andi	r24, 0xFB	; 251
     966:	80 93 e1 00 	sts	0x00E1, r24
	{
		USB_INT_Clear(USB_INT_SOFI);

		EVENT_USB_Device_StartOfFrame();
     96a:	44 d2       	rcall	.+1160   	; 0xdf4 <USB_Event_Stub>
     96c:	80 91 da 00 	lds	r24, 0x00DA
			{
				switch (Interrupt)
				{
					#if (defined(USB_SERIES_4_AVR) || defined(USB_SERIES_6_AVR) || defined(USB_SERIES_7_AVR))
					case USB_INT_VBUSTI:
						return (USBINT & (1 << VBUSTI));
     970:	80 ff       	sbrs	r24, 0
	}
	#endif

	#if defined(USB_SERIES_4_AVR) || defined(USB_SERIES_6_AVR) || defined(USB_SERIES_7_AVR)
	if (USB_INT_HasOccurred(USB_INT_VBUSTI) && USB_INT_IsEnabled(USB_INT_VBUSTI))
     972:	1b c0       	rjmp	.+54     	; 0x9aa <__vector_10+0x7c>
     974:	80 91 d8 00 	lds	r24, 0x00D8
			{
				switch (Interrupt)
				{
					#if (defined(USB_SERIES_4_AVR) || defined(USB_SERIES_6_AVR) || defined(USB_SERIES_7_AVR))
					case USB_INT_VBUSTI:
						return (USBCON & (1 << VBUSTE));
     978:	80 ff       	sbrs	r24, 0
     97a:	17 c0       	rjmp	.+46     	; 0x9aa <__vector_10+0x7c>
     97c:	80 91 da 00 	lds	r24, 0x00DA
			{
				switch (Interrupt)
				{
					#if (defined(USB_SERIES_4_AVR) || defined(USB_SERIES_6_AVR) || defined(USB_SERIES_7_AVR))
					case USB_INT_VBUSTI:
						USBINT &= ~(1 << VBUSTI);
     980:	8e 7f       	andi	r24, 0xFE	; 254
     982:	80 93 da 00 	sts	0x00DA, r24
     986:	80 91 d9 00 	lds	r24, 0x00D9
				 *  \return Boolean \c true if the VBUS line is currently detecting power from a host, \c false otherwise.
				 */
				static inline bool USB_VBUS_GetStatus(void) ATTR_WARN_UNUSED_RESULT ATTR_ALWAYS_INLINE;
				static inline bool USB_VBUS_GetStatus(void)
				{
					return ((USBSTA & (1 << VBUS)) ? true : false);
     98a:	80 ff       	sbrs	r24, 0
	{
		USB_INT_Clear(USB_INT_VBUSTI);

		if (USB_VBUS_GetStatus())
     98c:	0b c0       	rjmp	.+22     	; 0x9a4 <__vector_10+0x76>
     98e:	80 e1       	ldi	r24, 0x10	; 16

		/* Inline Functions: */
			static inline void USB_PLL_On(void) ATTR_ALWAYS_INLINE;
			static inline void USB_PLL_On(void)
			{
				PLLCSR = USB_PLL_PSC;
     990:	89 bd       	out	0x29, r24	; 41
     992:	82 e1       	ldi	r24, 0x12	; 18
				PLLCSR = (USB_PLL_PSC | (1 << PLLE));
     994:	89 bd       	out	0x29, r24	; 41
     996:	09 b4       	in	r0, 0x29	; 41
		{
			if (!(USB_Options & USB_OPT_MANUAL_PLL))
			{
				USB_PLL_On();
				while (!(USB_PLL_IsReady()));
     998:	00 fe       	sbrs	r0, 0
     99a:	fd cf       	rjmp	.-6      	; 0x996 <__vector_10+0x68>
     99c:	81 e0       	ldi	r24, 0x01	; 1
			}

			USB_DeviceState = DEVICE_STATE_Powered;
     99e:	8e bb       	out	0x1e, r24	; 30
     9a0:	10 dd       	rcall	.-1504   	; 0x3c2 <EVENT_USB_Device_Connect>
			EVENT_USB_Device_Connect();
     9a2:	03 c0       	rjmp	.+6      	; 0x9aa <__vector_10+0x7c>
     9a4:	19 bc       	out	0x29, r1	; 41
     9a6:	1e ba       	out	0x1e, r1	; 30
			}

			static inline void USB_PLL_Off(void) ATTR_ALWAYS_INLINE;
			static inline void USB_PLL_Off(void)
			{
				PLLCSR = 0;
     9a8:	0e dd       	rcall	.-1508   	; 0x3c6 <EVENT_USB_Device_Disconnect>
		else
		{
			if (!(USB_Options & USB_OPT_MANUAL_PLL))
			  USB_PLL_Off();

			USB_DeviceState = DEVICE_STATE_Unattached;
     9aa:	80 91 e1 00 	lds	r24, 0x00E1
			EVENT_USB_Device_Disconnect();
     9ae:	80 ff       	sbrs	r24, 0
					#endif
					#if defined(USB_CAN_BE_DEVICE)
					case USB_INT_WAKEUPI:
						return (UDINT  & (1 << WAKEUPI));
					case USB_INT_SUSPI:
						return (UDINT  & (1 << SUSPI));
     9b0:	17 c0       	rjmp	.+46     	; 0x9e0 <__vector_10+0xb2>
     9b2:	80 91 e2 00 	lds	r24, 0x00E2
		}
	}
	#endif

	if (USB_INT_HasOccurred(USB_INT_SUSPI) && USB_INT_IsEnabled(USB_INT_SUSPI))
     9b6:	80 ff       	sbrs	r24, 0
					#endif
					#if defined(USB_CAN_BE_DEVICE)
					case USB_INT_WAKEUPI:
						return (UDIEN  & (1 << WAKEUPE));
					case USB_INT_SUSPI:
						return (UDIEN  & (1 << SUSPE));
     9b8:	13 c0       	rjmp	.+38     	; 0x9e0 <__vector_10+0xb2>
     9ba:	80 91 e2 00 	lds	r24, 0x00E2
     9be:	8e 7f       	andi	r24, 0xFE	; 254
					#if defined(USB_CAN_BE_DEVICE)
					case USB_INT_WAKEUPI:
						UDIEN  &= ~(1 << WAKEUPE);
						break;
					case USB_INT_SUSPI:
						UDIEN  &= ~(1 << SUSPE);
     9c0:	80 93 e2 00 	sts	0x00E2, r24
     9c4:	80 91 e2 00 	lds	r24, 0x00E2
     9c8:	80 61       	ori	r24, 0x10	; 16
						USBCON |= (1 << IDTE);
						break;
					#endif
					#if defined(USB_CAN_BE_DEVICE)
					case USB_INT_WAKEUPI:
						UDIEN  |= (1 << WAKEUPE);
     9ca:	80 93 e2 00 	sts	0x00E2, r24
     9ce:	80 91 d8 00 	lds	r24, 0x00D8
     9d2:	80 62       	ori	r24, 0x20	; 32
			#endif

			static inline void USB_CLK_Freeze(void) ATTR_ALWAYS_INLINE;
			static inline void USB_CLK_Freeze(void)
			{
				USBCON |=  (1 << FRZCLK);
     9d4:	80 93 d8 00 	sts	0x00D8, r24
     9d8:	19 bc       	out	0x29, r1	; 41
     9da:	85 e0       	ldi	r24, 0x05	; 5
     9dc:	8e bb       	out	0x1e, r24	; 30
			}

			static inline void USB_PLL_Off(void) ATTR_ALWAYS_INLINE;
			static inline void USB_PLL_Off(void)
			{
				PLLCSR = 0;
     9de:	0a d2       	rcall	.+1044   	; 0xdf4 <USB_Event_Stub>

		#if defined(USB_SERIES_2_AVR) && !defined(NO_LIMITED_CONTROLLER_CONNECT)
		USB_DeviceState = DEVICE_STATE_Unattached;
		EVENT_USB_Device_Disconnect();
		#else
		USB_DeviceState = DEVICE_STATE_Suspended;
     9e0:	80 91 e1 00 	lds	r24, 0x00E1
		EVENT_USB_Device_Suspend();
     9e4:	84 ff       	sbrs	r24, 4
     9e6:	2c c0       	rjmp	.+88     	; 0xa40 <__vector_10+0x112>
					case USB_INT_IDTI:
						return (USBINT & (1 << IDTI));
					#endif
					#if defined(USB_CAN_BE_DEVICE)
					case USB_INT_WAKEUPI:
						return (UDINT  & (1 << WAKEUPI));
     9e8:	80 91 e2 00 	lds	r24, 0x00E2
		#endif
	}

	if (USB_INT_HasOccurred(USB_INT_WAKEUPI) && USB_INT_IsEnabled(USB_INT_WAKEUPI))
     9ec:	84 ff       	sbrs	r24, 4
     9ee:	28 c0       	rjmp	.+80     	; 0xa40 <__vector_10+0x112>
					case USB_INT_IDTI:
						return (USBCON & (1 << IDTE));
					#endif
					#if defined(USB_CAN_BE_DEVICE)
					case USB_INT_WAKEUPI:
						return (UDIEN  & (1 << WAKEUPE));
     9f0:	80 e1       	ldi	r24, 0x10	; 16
     9f2:	89 bd       	out	0x29, r24	; 41
     9f4:	82 e1       	ldi	r24, 0x12	; 18
     9f6:	89 bd       	out	0x29, r24	; 41

		/* Inline Functions: */
			static inline void USB_PLL_On(void) ATTR_ALWAYS_INLINE;
			static inline void USB_PLL_On(void)
			{
				PLLCSR = USB_PLL_PSC;
     9f8:	09 b4       	in	r0, 0x29	; 41
     9fa:	00 fe       	sbrs	r0, 0
				PLLCSR = (USB_PLL_PSC | (1 << PLLE));
     9fc:	fd cf       	rjmp	.-6      	; 0x9f8 <__vector_10+0xca>
     9fe:	80 91 d8 00 	lds	r24, 0x00D8
	{
		if (!(USB_Options & USB_OPT_MANUAL_PLL))
		{
			USB_PLL_On();
			while (!(USB_PLL_IsReady()));
     a02:	8f 7d       	andi	r24, 0xDF	; 223
     a04:	80 93 d8 00 	sts	0x00D8, r24
			}

			static inline void USB_CLK_Unfreeze(void) ATTR_ALWAYS_INLINE;
			static inline void USB_CLK_Unfreeze(void)
			{
				USBCON &= ~(1 << FRZCLK);
     a08:	80 91 e1 00 	lds	r24, 0x00E1
     a0c:	8f 7e       	andi	r24, 0xEF	; 239
     a0e:	80 93 e1 00 	sts	0x00E1, r24
						USBINT &= ~(1 << IDTI);
						break;
					#endif
					#if defined(USB_CAN_BE_DEVICE)
					case USB_INT_WAKEUPI:
						UDINT  &= ~(1 << WAKEUPI);
     a12:	80 91 e2 00 	lds	r24, 0x00E2
     a16:	8f 7e       	andi	r24, 0xEF	; 239
     a18:	80 93 e2 00 	sts	0x00E2, r24
						USBCON &= ~(1 << IDTE);
						break;
					#endif
					#if defined(USB_CAN_BE_DEVICE)
					case USB_INT_WAKEUPI:
						UDIEN  &= ~(1 << WAKEUPE);
     a1c:	80 91 e2 00 	lds	r24, 0x00E2
     a20:	81 60       	ori	r24, 0x01	; 1
     a22:	80 93 e2 00 	sts	0x00E2, r24
					#if defined(USB_CAN_BE_DEVICE)
					case USB_INT_WAKEUPI:
						UDIEN  |= (1 << WAKEUPE);
						break;
					case USB_INT_SUSPI:
						UDIEN  |= (1 << SUSPE);
     a26:	80 91 a6 02 	lds	r24, 0x02A6
     a2a:	88 23       	and	r24, r24
     a2c:	21 f4       	brne	.+8      	; 0xa36 <__vector_10+0x108>
		USB_INT_Clear(USB_INT_WAKEUPI);

		USB_INT_Disable(USB_INT_WAKEUPI);
		USB_INT_Enable(USB_INT_SUSPI);

		if (USB_Device_ConfigurationNumber)
     a2e:	80 91 e3 00 	lds	r24, 0x00E3
     a32:	87 ff       	sbrs	r24, 7
     a34:	02 c0       	rjmp	.+4      	; 0xa3a <__vector_10+0x10c>
			}

			static inline bool USB_Device_IsAddressSet(void) ATTR_ALWAYS_INLINE ATTR_WARN_UNUSED_RESULT;
			static inline bool USB_Device_IsAddressSet(void)
			{
				return (UDADDR & (1 << ADDEN));
     a36:	84 e0       	ldi	r24, 0x04	; 4
     a38:	01 c0       	rjmp	.+2      	; 0xa3c <__vector_10+0x10e>
		  USB_DeviceState = DEVICE_STATE_Configured;
		else
		  USB_DeviceState = (USB_Device_IsAddressSet()) ? DEVICE_STATE_Configured : DEVICE_STATE_Powered;
     a3a:	81 e0       	ldi	r24, 0x01	; 1
     a3c:	8e bb       	out	0x1e, r24	; 30
     a3e:	da d1       	rcall	.+948    	; 0xdf4 <USB_Event_Stub>
     a40:	80 91 e1 00 	lds	r24, 0x00E1
     a44:	83 ff       	sbrs	r24, 3

		#if defined(USB_SERIES_2_AVR) && !defined(NO_LIMITED_CONTROLLER_CONNECT)
		EVENT_USB_Device_Connect();
		#else
		EVENT_USB_Device_WakeUp();
     a46:	26 c0       	rjmp	.+76     	; 0xa94 <__vector_10+0x166>
     a48:	80 91 e2 00 	lds	r24, 0x00E2
					case USB_INT_WAKEUPI:
						return (UDINT  & (1 << WAKEUPI));
					case USB_INT_SUSPI:
						return (UDINT  & (1 << SUSPI));
					case USB_INT_EORSTI:
						return (UDINT  & (1 << EORSTI));
     a4c:	83 ff       	sbrs	r24, 3
		#endif
	}

	if (USB_INT_HasOccurred(USB_INT_EORSTI) && USB_INT_IsEnabled(USB_INT_EORSTI))
     a4e:	22 c0       	rjmp	.+68     	; 0xa94 <__vector_10+0x166>
     a50:	80 91 e1 00 	lds	r24, 0x00E1
					case USB_INT_WAKEUPI:
						return (UDIEN  & (1 << WAKEUPE));
					case USB_INT_SUSPI:
						return (UDIEN  & (1 << SUSPE));
					case USB_INT_EORSTI:
						return (UDIEN  & (1 << EORSTE));
     a54:	87 7f       	andi	r24, 0xF7	; 247
     a56:	80 93 e1 00 	sts	0x00E1, r24
						break;
					case USB_INT_SUSPI:
						UDINT  &= ~(1 << SUSPI);
						break;
					case USB_INT_EORSTI:
						UDINT  &= ~(1 << EORSTI);
     a5a:	82 e0       	ldi	r24, 0x02	; 2
     a5c:	8e bb       	out	0x1e, r24	; 30
     a5e:	10 92 a6 02 	sts	0x02A6, r1
     a62:	80 91 e1 00 	lds	r24, 0x00E1
	{
		USB_INT_Clear(USB_INT_EORSTI);

		USB_DeviceState                = DEVICE_STATE_Default;
     a66:	8e 7f       	andi	r24, 0xFE	; 254
		USB_Device_ConfigurationNumber = 0;
     a68:	80 93 e1 00 	sts	0x00E1, r24
					#if defined(USB_CAN_BE_DEVICE)
					case USB_INT_WAKEUPI:
						UDINT  &= ~(1 << WAKEUPI);
						break;
					case USB_INT_SUSPI:
						UDINT  &= ~(1 << SUSPI);
     a6c:	80 91 e2 00 	lds	r24, 0x00E2
     a70:	8e 7f       	andi	r24, 0xFE	; 254
     a72:	80 93 e2 00 	sts	0x00E2, r24
					#if defined(USB_CAN_BE_DEVICE)
					case USB_INT_WAKEUPI:
						UDIEN  &= ~(1 << WAKEUPE);
						break;
					case USB_INT_SUSPI:
						UDIEN  &= ~(1 << SUSPE);
     a76:	80 91 e2 00 	lds	r24, 0x00E2
     a7a:	80 61       	ori	r24, 0x10	; 16
     a7c:	80 93 e2 00 	sts	0x00E2, r24
						USBCON |= (1 << IDTE);
						break;
					#endif
					#if defined(USB_CAN_BE_DEVICE)
					case USB_INT_WAKEUPI:
						UDIEN  |= (1 << WAKEUPE);
     a80:	80 e0       	ldi	r24, 0x00	; 0
     a82:	60 e0       	ldi	r22, 0x00	; 0
     a84:	42 e0       	ldi	r20, 0x02	; 2
     a86:	35 de       	rcall	.-918    	; 0x6f2 <Endpoint_ConfigureEndpoint_Prv>
     a88:	80 91 f0 00 	lds	r24, 0x00F0
				uint8_t Number = (Address & ENDPOINT_EPNUM_MASK);

				if (Number >= ENDPOINT_TOTAL_ENDPOINTS)
				  return false;

				return Endpoint_ConfigureEndpoint_Prv(Number,
     a8c:	88 60       	ori	r24, 0x08	; 8
     a8e:	80 93 f0 00 	sts	0x00F0, r24
     a92:	b0 d1       	rcall	.+864    	; 0xdf4 <USB_Event_Stub>
						break;
					case USB_INT_SOFI:
						UDIEN  |= (1 << SOFE);
						break;
					case USB_INT_RXSTPI:
						UEIENX |= (1 << RXSTPE);
     a94:	ff 91       	pop	r31
     a96:	ef 91       	pop	r30
     a98:	bf 91       	pop	r27
     a9a:	af 91       	pop	r26
     a9c:	9f 91       	pop	r25

		#if defined(INTERRUPT_CONTROL_ENDPOINT)
		USB_INT_Enable(USB_INT_RXSTPI);
		#endif

		EVENT_USB_Device_Reset();
     a9e:	8f 91       	pop	r24
     aa0:	7f 91       	pop	r23
		USB_ResetInterface();

		EVENT_USB_UIDChange();
	}
	#endif
}
     aa2:	6f 91       	pop	r22
     aa4:	5f 91       	pop	r21
     aa6:	4f 91       	pop	r20
     aa8:	3f 91       	pop	r19
     aaa:	2f 91       	pop	r18
     aac:	0f 90       	pop	r0
     aae:	0f be       	out	0x3f, r0	; 63
     ab0:	0f 90       	pop	r0
     ab2:	1f 90       	pop	r1
     ab4:	18 95       	reti

00000ab6 <__vector_11>:
     ab6:	1f 92       	push	r1
     ab8:	0f 92       	push	r0
     aba:	0f b6       	in	r0, 0x3f	; 63
     abc:	0f 92       	push	r0
     abe:	11 24       	eor	r1, r1
     ac0:	2f 93       	push	r18
     ac2:	3f 93       	push	r19

#if defined(INTERRUPT_CONTROL_ENDPOINT) && defined(USB_CAN_BE_DEVICE)
ISR(USB_COM_vect, ISR_BLOCK)
{
     ac4:	4f 93       	push	r20
     ac6:	5f 93       	push	r21
     ac8:	6f 93       	push	r22
     aca:	7f 93       	push	r23
     acc:	8f 93       	push	r24
     ace:	9f 93       	push	r25
     ad0:	af 93       	push	r26
     ad2:	bf 93       	push	r27
     ad4:	cf 93       	push	r28
     ad6:	ef 93       	push	r30
     ad8:	ff 93       	push	r31
			 */
			static inline uint8_t Endpoint_GetCurrentEndpoint(void) ATTR_WARN_UNUSED_RESULT ATTR_ALWAYS_INLINE;
			static inline uint8_t Endpoint_GetCurrentEndpoint(void)
			{
				#if !defined(CONTROL_ONLY_DEVICE)
					return ((UENUM & ENDPOINT_EPNUM_MASK) | Endpoint_GetEndpointDirection());
     ada:	c0 91 e9 00 	lds	r28, 0x00E9
     ade:	cf 70       	andi	r28, 0x0F	; 15
			 *  \return The currently selected endpoint's direction, as a \c ENDPOINT_DIR_* mask.
			 */
			static inline uint8_t Endpoint_GetEndpointDirection(void) ATTR_WARN_UNUSED_RESULT ATTR_ALWAYS_INLINE;
			static inline uint8_t Endpoint_GetEndpointDirection(void)
			{
				return (UECFG0X & (1 << EPDIR)) ? ENDPOINT_DIR_IN : ENDPOINT_DIR_OUT;
     ae0:	80 91 ec 00 	lds	r24, 0x00EC
			 */
			static inline void Endpoint_SelectEndpoint(const uint8_t Address) ATTR_ALWAYS_INLINE;
			static inline void Endpoint_SelectEndpoint(const uint8_t Address)
			{
				#if !defined(CONTROL_ONLY_DEVICE)
					UENUM = (Address & ENDPOINT_EPNUM_MASK);
     ae4:	10 92 e9 00 	sts	0x00E9, r1
						break;
					case USB_INT_SOFI:
						UDIEN  &= ~(1 << SOFE);
						break;
					case USB_INT_RXSTPI:
						UEIENX &= ~(1 << RXSTPE);
     ae8:	80 91 f0 00 	lds	r24, 0x00F0
     aec:	87 7f       	andi	r24, 0xF7	; 247
     aee:	80 93 f0 00 	sts	0x00F0, r24
			static inline void GlobalInterruptEnable(void)
			{
				GCC_MEMORY_BARRIER();

				#if (ARCH == ARCH_AVR8)
				sei();
     af2:	78 94       	sei
	Endpoint_SelectEndpoint(ENDPOINT_CONTROLEP);
	USB_INT_Disable(USB_INT_RXSTPI);

	GlobalInterruptEnable();

	USB_Device_ProcessControlRequest();
     af4:	1b d0       	rcall	.+54     	; 0xb2c <USB_Device_ProcessControlRequest>
     af6:	10 92 e9 00 	sts	0x00E9, r1
     afa:	80 91 f0 00 	lds	r24, 0x00F0
						break;
					case USB_INT_SOFI:
						UDIEN  |= (1 << SOFE);
						break;
					case USB_INT_RXSTPI:
						UEIENX |= (1 << RXSTPE);
     afe:	88 60       	ori	r24, 0x08	; 8
     b00:	80 93 f0 00 	sts	0x00F0, r24
     b04:	c0 93 e9 00 	sts	0x00E9, r28
     b08:	ff 91       	pop	r31

	Endpoint_SelectEndpoint(ENDPOINT_CONTROLEP);
	USB_INT_Enable(USB_INT_RXSTPI);
	Endpoint_SelectEndpoint(PrevSelectedEndpoint);
}
     b0a:	ef 91       	pop	r30
     b0c:	cf 91       	pop	r28
     b0e:	bf 91       	pop	r27
     b10:	af 91       	pop	r26
     b12:	9f 91       	pop	r25
     b14:	8f 91       	pop	r24
     b16:	7f 91       	pop	r23
     b18:	6f 91       	pop	r22
     b1a:	5f 91       	pop	r21
     b1c:	4f 91       	pop	r20
     b1e:	3f 91       	pop	r19
     b20:	2f 91       	pop	r18
     b22:	0f 90       	pop	r0
     b24:	0f be       	out	0x3f, r0	; 63
     b26:	0f 90       	pop	r0
     b28:	1f 90       	pop	r1
     b2a:	18 95       	reti

00000b2c <USB_Device_ProcessControlRequest>:
#if !defined(NO_DEVICE_REMOTE_WAKEUP)
bool    USB_Device_RemoteWakeupEnabled;
#endif

void USB_Device_ProcessControlRequest(void)
{
     b2c:	1f 93       	push	r17
     b2e:	cf 93       	push	r28
     b30:	df 93       	push	r29
     b32:	cd b7       	in	r28, 0x3d	; 61
     b34:	de b7       	in	r29, 0x3e	; 62
     b36:	ac 97       	sbiw	r28, 0x2c	; 44
     b38:	0f b6       	in	r0, 0x3f	; 63
     b3a:	f8 94       	cli
     b3c:	de bf       	out	0x3e, r29	; 62
     b3e:	0f be       	out	0x3f, r0	; 63
     b40:	cd bf       	out	0x3d, r28	; 61
	USB_ControlRequest.wIndex        = Endpoint_Read_16_LE();
	USB_ControlRequest.wLength       = Endpoint_Read_16_LE();
	#else
	uint8_t* RequestHeader = (uint8_t*)&USB_ControlRequest;

	for (uint8_t RequestHeaderByte = 0; RequestHeaderByte < sizeof(USB_Request_Header_t); RequestHeaderByte++)
     b42:	80 e0       	ldi	r24, 0x00	; 0
	USB_ControlRequest.bRequest      = Endpoint_Read_8();
	USB_ControlRequest.wValue        = Endpoint_Read_16_LE();
	USB_ControlRequest.wIndex        = Endpoint_Read_16_LE();
	USB_ControlRequest.wLength       = Endpoint_Read_16_LE();
	#else
	uint8_t* RequestHeader = (uint8_t*)&USB_ControlRequest;
     b44:	ea ea       	ldi	r30, 0xAA	; 170
     b46:	f2 e0       	ldi	r31, 0x02	; 2
			 *  \return Next byte in the currently selected endpoint's FIFO buffer.
			 */
			static inline uint8_t Endpoint_Read_8(void) ATTR_WARN_UNUSED_RESULT ATTR_ALWAYS_INLINE;
			static inline uint8_t Endpoint_Read_8(void)
			{
				return UEDATX;
     b48:	90 91 f1 00 	lds	r25, 0x00F1

	for (uint8_t RequestHeaderByte = 0; RequestHeaderByte < sizeof(USB_Request_Header_t); RequestHeaderByte++)
	  *(RequestHeader++) = Endpoint_Read_8();
     b4c:	91 93       	st	Z+, r25
	USB_ControlRequest.wIndex        = Endpoint_Read_16_LE();
	USB_ControlRequest.wLength       = Endpoint_Read_16_LE();
	#else
	uint8_t* RequestHeader = (uint8_t*)&USB_ControlRequest;

	for (uint8_t RequestHeaderByte = 0; RequestHeaderByte < sizeof(USB_Request_Header_t); RequestHeaderByte++)
     b4e:	8f 5f       	subi	r24, 0xFF	; 255
     b50:	88 30       	cpi	r24, 0x08	; 8
     b52:	d1 f7       	brne	.-12     	; 0xb48 <USB_Device_ProcessControlRequest+0x1c>
	  *(RequestHeader++) = Endpoint_Read_8();
	#endif

	EVENT_USB_Device_ControlRequest();
     b54:	43 dc       	rcall	.-1914   	; 0x3dc <EVENT_USB_Device_ControlRequest>
     b56:	80 91 e8 00 	lds	r24, 0x00E8
			 *  \return Boolean \c true if the selected endpoint has received a SETUP packet, \c false otherwise.
			 */
			static inline bool Endpoint_IsSETUPReceived(void) ATTR_WARN_UNUSED_RESULT ATTR_ALWAYS_INLINE;
			static inline bool Endpoint_IsSETUPReceived(void)
			{
				return ((UEINTX & (1 << RXSTPI)) ? true : false);
     b5a:	83 ff       	sbrs	r24, 3

	if (Endpoint_IsSETUPReceived())
     b5c:	33 c1       	rjmp	.+614    	; 0xdc4 <USB_Device_ProcessControlRequest+0x298>
     b5e:	80 91 aa 02 	lds	r24, 0x02AA
	{
		uint8_t bmRequestType = USB_ControlRequest.bmRequestType;
     b62:	20 91 ab 02 	lds	r18, 0x02AB

		switch (USB_ControlRequest.bRequest)
     b66:	25 30       	cpi	r18, 0x05	; 5
     b68:	09 f4       	brne	.+2      	; 0xb6c <USB_Device_ProcessControlRequest+0x40>
     b6a:	84 c0       	rjmp	.+264    	; 0xc74 <USB_Device_ProcessControlRequest+0x148>
     b6c:	26 30       	cpi	r18, 0x06	; 6
     b6e:	40 f4       	brcc	.+16     	; 0xb80 <USB_Device_ProcessControlRequest+0x54>
     b70:	21 30       	cpi	r18, 0x01	; 1
     b72:	a1 f1       	breq	.+104    	; 0xbdc <USB_Device_ProcessControlRequest+0xb0>
     b74:	21 30       	cpi	r18, 0x01	; 1
     b76:	70 f0       	brcs	.+28     	; 0xb94 <USB_Device_ProcessControlRequest+0x68>
     b78:	23 30       	cpi	r18, 0x03	; 3
     b7a:	09 f0       	breq	.+2      	; 0xb7e <USB_Device_ProcessControlRequest+0x52>
     b7c:	23 c1       	rjmp	.+582    	; 0xdc4 <USB_Device_ProcessControlRequest+0x298>
     b7e:	2e c0       	rjmp	.+92     	; 0xbdc <USB_Device_ProcessControlRequest+0xb0>
     b80:	28 30       	cpi	r18, 0x08	; 8
     b82:	09 f4       	brne	.+2      	; 0xb86 <USB_Device_ProcessControlRequest+0x5a>
     b84:	f2 c0       	rjmp	.+484    	; 0xd6a <USB_Device_ProcessControlRequest+0x23e>
     b86:	29 30       	cpi	r18, 0x09	; 9
     b88:	09 f4       	brne	.+2      	; 0xb8c <USB_Device_ProcessControlRequest+0x60>
     b8a:	01 c1       	rjmp	.+514    	; 0xd8e <USB_Device_ProcessControlRequest+0x262>
     b8c:	26 30       	cpi	r18, 0x06	; 6
     b8e:	09 f0       	breq	.+2      	; 0xb92 <USB_Device_ProcessControlRequest+0x66>
     b90:	19 c1       	rjmp	.+562    	; 0xdc4 <USB_Device_ProcessControlRequest+0x298>
     b92:	92 c0       	rjmp	.+292    	; 0xcb8 <USB_Device_ProcessControlRequest+0x18c>
     b94:	80 38       	cpi	r24, 0x80	; 128
		{
			case REQ_GetStatus:
				if ((bmRequestType == (REQDIR_DEVICETOHOST | REQTYPE_STANDARD | REQREC_DEVICE)) ||
     b96:	21 f0       	breq	.+8      	; 0xba0 <USB_Device_ProcessControlRequest+0x74>
     b98:	82 38       	cpi	r24, 0x82	; 130
     b9a:	09 f0       	breq	.+2      	; 0xb9e <USB_Device_ProcessControlRequest+0x72>
     b9c:	13 c1       	rjmp	.+550    	; 0xdc4 <USB_Device_ProcessControlRequest+0x298>
     b9e:	08 c0       	rjmp	.+16     	; 0xbb0 <USB_Device_ProcessControlRequest+0x84>
     ba0:	80 91 a7 02 	lds	r24, 0x02A7
	Endpoint_ClearOUT();
}

static void USB_Device_GetStatus(void)
{
	uint8_t CurrentStatus = 0;
     ba4:	90 91 a8 02 	lds	r25, 0x02A8
			if (USB_Device_CurrentlySelfPowered)
			  CurrentStatus |= FEATURE_SELFPOWERED_ENABLED;
			#endif

			#if !defined(NO_DEVICE_REMOTE_WAKEUP)
			if (USB_Device_RemoteWakeupEnabled)
     ba8:	99 23       	and	r25, r25
     baa:	71 f0       	breq	.+28     	; 0xbc8 <USB_Device_ProcessControlRequest+0x9c>
     bac:	82 60       	ori	r24, 0x02	; 2
			  CurrentStatus |= FEATURE_REMOTE_WAKEUP_ENABLED;
     bae:	0c c0       	rjmp	.+24     	; 0xbc8 <USB_Device_ProcessControlRequest+0x9c>
     bb0:	80 91 ae 02 	lds	r24, 0x02AE
			#endif
			break;
		case (REQDIR_DEVICETOHOST | REQTYPE_STANDARD | REQREC_ENDPOINT):
			#if !defined(CONTROL_ONLY_DEVICE)
			Endpoint_SelectEndpoint((uint8_t)USB_ControlRequest.wIndex & ENDPOINT_EPNUM_MASK);
     bb4:	8f 70       	andi	r24, 0x0F	; 15
     bb6:	80 93 e9 00 	sts	0x00E9, r24
			 */
			static inline void Endpoint_SelectEndpoint(const uint8_t Address) ATTR_ALWAYS_INLINE;
			static inline void Endpoint_SelectEndpoint(const uint8_t Address)
			{
				#if !defined(CONTROL_ONLY_DEVICE)
					UENUM = (Address & ENDPOINT_EPNUM_MASK);
     bba:	90 91 eb 00 	lds	r25, 0x00EB
			 *  \return Boolean \c true if the currently selected endpoint is stalled, \c false otherwise.
			 */
			static inline bool Endpoint_IsStalled(void) ATTR_WARN_UNUSED_RESULT ATTR_ALWAYS_INLINE;
			static inline bool Endpoint_IsStalled(void)
			{
				return ((UECONX & (1 << STALLRQ)) ? true : false);
     bbe:	81 e0       	ldi	r24, 0x01	; 1

			CurrentStatus = Endpoint_IsStalled();
     bc0:	95 ff       	sbrs	r25, 5
     bc2:	80 e0       	ldi	r24, 0x00	; 0
     bc4:	10 92 e9 00 	sts	0x00E9, r1
			 */
			static inline void Endpoint_SelectEndpoint(const uint8_t Address) ATTR_ALWAYS_INLINE;
			static inline void Endpoint_SelectEndpoint(const uint8_t Address)
			{
				#if !defined(CONTROL_ONLY_DEVICE)
					UENUM = (Address & ENDPOINT_EPNUM_MASK);
     bc8:	90 91 e8 00 	lds	r25, 0x00E8
			 *  \note This is not applicable for non CONTROL type endpoints.
			 */
			static inline void Endpoint_ClearSETUP(void) ATTR_ALWAYS_INLINE;
			static inline void Endpoint_ClearSETUP(void)
			{
				UEINTX &= ~(1 << RXSTPI);
     bcc:	97 7f       	andi	r25, 0xF7	; 247
     bce:	90 93 e8 00 	sts	0x00E8, r25
     bd2:	80 93 f1 00 	sts	0x00F1, r24
			 *  \param[in] Data  Data to write to the currently selected endpoint's FIFO buffer.
			 */
			static inline void Endpoint_Write_16_LE(const uint16_t Data) ATTR_ALWAYS_INLINE;
			static inline void Endpoint_Write_16_LE(const uint16_t Data)
			{
				UEDATX = (Data & 0xFF);
     bd6:	10 92 f1 00 	sts	0x00F1, r1
				UEDATX = (Data >> 8);
     bda:	d2 c0       	rjmp	.+420    	; 0xd80 <USB_Device_ProcessControlRequest+0x254>
     bdc:	88 23       	and	r24, r24
				}

				break;
			case REQ_ClearFeature:
			case REQ_SetFeature:
				if ((bmRequestType == (REQDIR_HOSTTODEVICE | REQTYPE_STANDARD | REQREC_DEVICE)) ||
     bde:	19 f0       	breq	.+6      	; 0xbe6 <USB_Device_ProcessControlRequest+0xba>
     be0:	82 30       	cpi	r24, 0x02	; 2
     be2:	09 f0       	breq	.+2      	; 0xbe6 <USB_Device_ProcessControlRequest+0xba>
     be4:	ef c0       	rjmp	.+478    	; 0xdc4 <USB_Device_ProcessControlRequest+0x298>
     be6:	90 e0       	ldi	r25, 0x00	; 0
	Endpoint_ClearStatusStage();
}

static void USB_Device_ClearSetFeature(void)
{
	switch (USB_ControlRequest.bmRequestType & CONTROL_REQTYPE_RECIPIENT)
     be8:	8f 71       	andi	r24, 0x1F	; 31
     bea:	90 70       	andi	r25, 0x00	; 0
     bec:	00 97       	sbiw	r24, 0x00	; 0
     bee:	29 f0       	breq	.+10     	; 0xbfa <USB_Device_ProcessControlRequest+0xce>
     bf0:	82 30       	cpi	r24, 0x02	; 2
     bf2:	91 05       	cpc	r25, r1
     bf4:	09 f0       	breq	.+2      	; 0xbf8 <USB_Device_ProcessControlRequest+0xcc>
     bf6:	e6 c0       	rjmp	.+460    	; 0xdc4 <USB_Device_ProcessControlRequest+0x298>
     bf8:	0b c0       	rjmp	.+22     	; 0xc10 <USB_Device_ProcessControlRequest+0xe4>
     bfa:	80 91 ac 02 	lds	r24, 0x02AC
	{
		#if !defined(NO_DEVICE_REMOTE_WAKEUP)
		case REQREC_DEVICE:
			if ((uint8_t)USB_ControlRequest.wValue == FEATURE_SEL_DeviceRemoteWakeup)
     bfe:	81 30       	cpi	r24, 0x01	; 1
     c00:	09 f0       	breq	.+2      	; 0xc04 <USB_Device_ProcessControlRequest+0xd8>
     c02:	e0 c0       	rjmp	.+448    	; 0xdc4 <USB_Device_ProcessControlRequest+0x298>
     c04:	23 30       	cpi	r18, 0x03	; 3
			  USB_Device_RemoteWakeupEnabled = (USB_ControlRequest.bRequest == REQ_SetFeature);
     c06:	09 f0       	breq	.+2      	; 0xc0a <USB_Device_ProcessControlRequest+0xde>
     c08:	80 e0       	ldi	r24, 0x00	; 0
     c0a:	80 93 a8 02 	sts	0x02A8, r24
     c0e:	2c c0       	rjmp	.+88     	; 0xc68 <USB_Device_ProcessControlRequest+0x13c>
     c10:	80 91 ac 02 	lds	r24, 0x02AC

			break;
		#endif
		#if !defined(CONTROL_ONLY_DEVICE)
		case REQREC_ENDPOINT:
			if ((uint8_t)USB_ControlRequest.wValue == FEATURE_SEL_EndpointHalt)
     c14:	88 23       	and	r24, r24
     c16:	41 f5       	brne	.+80     	; 0xc68 <USB_Device_ProcessControlRequest+0x13c>
     c18:	20 91 ae 02 	lds	r18, 0x02AE
			{
				uint8_t EndpointIndex = ((uint8_t)USB_ControlRequest.wIndex & ENDPOINT_EPNUM_MASK);
     c1c:	2f 70       	andi	r18, 0x0F	; 15
     c1e:	09 f4       	brne	.+2      	; 0xc22 <USB_Device_ProcessControlRequest+0xf6>

				if (EndpointIndex == ENDPOINT_CONTROLEP)
     c20:	d1 c0       	rjmp	.+418    	; 0xdc4 <USB_Device_ProcessControlRequest+0x298>
     c22:	20 93 e9 00 	sts	0x00E9, r18
			 */
			static inline void Endpoint_SelectEndpoint(const uint8_t Address) ATTR_ALWAYS_INLINE;
			static inline void Endpoint_SelectEndpoint(const uint8_t Address)
			{
				#if !defined(CONTROL_ONLY_DEVICE)
					UENUM = (Address & ENDPOINT_EPNUM_MASK);
     c26:	80 91 eb 00 	lds	r24, 0x00EB
			 * \return Boolean \c true if the currently selected endpoint is enabled, \c false otherwise.
			 */
			static inline bool Endpoint_IsEnabled(void) ATTR_WARN_UNUSED_RESULT ATTR_ALWAYS_INLINE;
			static inline bool Endpoint_IsEnabled(void)
			{
				return ((UECONX & (1 << EPEN)) ? true : false);
     c2a:	80 ff       	sbrs	r24, 0
				  return;

				Endpoint_SelectEndpoint(EndpointIndex);

				if (Endpoint_IsEnabled())
     c2c:	1d c0       	rjmp	.+58     	; 0xc68 <USB_Device_ProcessControlRequest+0x13c>
     c2e:	80 91 ab 02 	lds	r24, 0x02AB
				{
					if (USB_ControlRequest.bRequest == REQ_SetFeature)
     c32:	83 30       	cpi	r24, 0x03	; 3
     c34:	21 f4       	brne	.+8      	; 0xc3e <USB_Device_ProcessControlRequest+0x112>
     c36:	80 91 eb 00 	lds	r24, 0x00EB
			 *  \ingroup Group_EndpointPacketManagement_AVR8
			 */
			static inline void Endpoint_StallTransaction(void) ATTR_ALWAYS_INLINE;
			static inline void Endpoint_StallTransaction(void)
			{
				UECONX |= (1 << STALLRQ);
     c3a:	80 62       	ori	r24, 0x20	; 32
     c3c:	13 c0       	rjmp	.+38     	; 0xc64 <USB_Device_ProcessControlRequest+0x138>
     c3e:	80 91 eb 00 	lds	r24, 0x00EB
			 *  \ingroup Group_EndpointPacketManagement_AVR8
			 */
			static inline void Endpoint_ClearStall(void) ATTR_ALWAYS_INLINE;
			static inline void Endpoint_ClearStall(void)
			{
				UECONX |= (1 << STALLRQC);
     c42:	80 61       	ori	r24, 0x10	; 16
     c44:	80 93 eb 00 	sts	0x00EB, r24
     c48:	81 e0       	ldi	r24, 0x01	; 1
			 *  \param[in] Address  Endpoint address whose FIFO buffers are to be reset.
			 */
			static inline void Endpoint_ResetEndpoint(const uint8_t Address) ATTR_ALWAYS_INLINE;
			static inline void Endpoint_ResetEndpoint(const uint8_t Address)
			{
				UERST = (1 << (Address & ENDPOINT_EPNUM_MASK));
     c4a:	90 e0       	ldi	r25, 0x00	; 0
     c4c:	02 c0       	rjmp	.+4      	; 0xc52 <USB_Device_ProcessControlRequest+0x126>
     c4e:	88 0f       	add	r24, r24
     c50:	99 1f       	adc	r25, r25
     c52:	2a 95       	dec	r18
     c54:	e2 f7       	brpl	.-8      	; 0xc4e <USB_Device_ProcessControlRequest+0x122>
     c56:	80 93 ea 00 	sts	0x00EA, r24
     c5a:	10 92 ea 00 	sts	0x00EA, r1
				UERST = 0;
     c5e:	80 91 eb 00 	lds	r24, 0x00EB

			/** Resets the data toggle of the currently selected endpoint. */
			static inline void Endpoint_ResetDataToggle(void) ATTR_ALWAYS_INLINE;
			static inline void Endpoint_ResetDataToggle(void)
			{
				UECONX |= (1 << RSTDT);
     c62:	88 60       	ori	r24, 0x08	; 8
     c64:	80 93 eb 00 	sts	0x00EB, r24
     c68:	10 92 e9 00 	sts	0x00E9, r1
			 */
			static inline void Endpoint_SelectEndpoint(const uint8_t Address) ATTR_ALWAYS_INLINE;
			static inline void Endpoint_SelectEndpoint(const uint8_t Address)
			{
				#if !defined(CONTROL_ONLY_DEVICE)
					UENUM = (Address & ENDPOINT_EPNUM_MASK);
     c6c:	80 91 e8 00 	lds	r24, 0x00E8
			 *  \note This is not applicable for non CONTROL type endpoints.
			 */
			static inline void Endpoint_ClearSETUP(void) ATTR_ALWAYS_INLINE;
			static inline void Endpoint_ClearSETUP(void)
			{
				UEINTX &= ~(1 << RXSTPI);
     c70:	87 7f       	andi	r24, 0xF7	; 247
     c72:	89 c0       	rjmp	.+274    	; 0xd86 <USB_Device_ProcessControlRequest+0x25a>
     c74:	88 23       	and	r24, r24
					USB_Device_ClearSetFeature();
				}

				break;
			case REQ_SetAddress:
				if (bmRequestType == (REQDIR_HOSTTODEVICE | REQTYPE_STANDARD | REQREC_DEVICE))
     c76:	09 f0       	breq	.+2      	; 0xc7a <USB_Device_ProcessControlRequest+0x14e>
     c78:	a5 c0       	rjmp	.+330    	; 0xdc4 <USB_Device_ProcessControlRequest+0x298>
     c7a:	10 91 ac 02 	lds	r17, 0x02AC
	}
}

static void USB_Device_SetAddress(void)
{
	uint8_t DeviceAddress = (USB_ControlRequest.wValue & 0x7F);
     c7e:	1f 77       	andi	r17, 0x7F	; 127
     c80:	80 91 e3 00 	lds	r24, 0x00E3
			#endif

			static inline void USB_Device_SetDeviceAddress(const uint8_t Address) ATTR_ALWAYS_INLINE;
			static inline void USB_Device_SetDeviceAddress(const uint8_t Address)
			{
				UDADDR = (UDADDR & (1 << ADDEN)) | (Address & 0x7F);
     c84:	80 78       	andi	r24, 0x80	; 128
     c86:	81 2b       	or	r24, r17
     c88:	80 93 e3 00 	sts	0x00E3, r24
     c8c:	80 91 e8 00 	lds	r24, 0x00E8
     c90:	87 7f       	andi	r24, 0xF7	; 247
     c92:	80 93 e8 00 	sts	0x00E8, r24
     c96:	9e dd       	rcall	.-1220   	; 0x7d4 <Endpoint_ClearStatusStage>

	USB_Device_SetDeviceAddress(DeviceAddress);

	Endpoint_ClearSETUP();

	Endpoint_ClearStatusStage();
     c98:	80 91 e8 00 	lds	r24, 0x00E8
			 *  \return Boolean \c true if the current endpoint is ready for an IN packet, \c false otherwise.
			 */
			static inline bool Endpoint_IsINReady(void) ATTR_WARN_UNUSED_RESULT ATTR_ALWAYS_INLINE;
			static inline bool Endpoint_IsINReady(void)
			{
				return ((UEINTX & (1 << TXINI)) ? true : false);
     c9c:	80 ff       	sbrs	r24, 0
     c9e:	fc cf       	rjmp	.-8      	; 0xc98 <USB_Device_ProcessControlRequest+0x16c>

	while (!(Endpoint_IsINReady()));
     ca0:	80 91 e3 00 	lds	r24, 0x00E3
			static inline void USB_Device_EnableDeviceAddress(const uint8_t Address) ATTR_ALWAYS_INLINE;
			static inline void USB_Device_EnableDeviceAddress(const uint8_t Address)
			{
				(void)Address;
				
				UDADDR |= (1 << ADDEN);
     ca4:	80 68       	ori	r24, 0x80	; 128
     ca6:	80 93 e3 00 	sts	0x00E3, r24
     caa:	11 23       	and	r17, r17
     cac:	11 f0       	breq	.+4      	; 0xcb2 <USB_Device_ProcessControlRequest+0x186>

	USB_Device_EnableDeviceAddress(DeviceAddress);

	USB_DeviceState = (DeviceAddress) ? DEVICE_STATE_Addressed : DEVICE_STATE_Default;
     cae:	83 e0       	ldi	r24, 0x03	; 3
     cb0:	01 c0       	rjmp	.+2      	; 0xcb4 <USB_Device_ProcessControlRequest+0x188>
     cb2:	82 e0       	ldi	r24, 0x02	; 2
     cb4:	8e bb       	out	0x1e, r24	; 30
     cb6:	86 c0       	rjmp	.+268    	; 0xdc4 <USB_Device_ProcessControlRequest+0x298>
     cb8:	80 58       	subi	r24, 0x80	; 128
     cba:	82 30       	cpi	r24, 0x02	; 2
				if (bmRequestType == (REQDIR_HOSTTODEVICE | REQTYPE_STANDARD | REQREC_DEVICE))
				  USB_Device_SetAddress();

				break;
			case REQ_GetDescriptor:
				if ((bmRequestType == (REQDIR_DEVICETOHOST | REQTYPE_STANDARD | REQREC_DEVICE)) ||
     cbc:	08 f0       	brcs	.+2      	; 0xcc0 <USB_Device_ProcessControlRequest+0x194>
     cbe:	82 c0       	rjmp	.+260    	; 0xdc4 <USB_Device_ProcessControlRequest+0x298>
     cc0:	80 91 ac 02 	lds	r24, 0x02AC
	    !(defined(USE_FLASH_DESCRIPTORS) || defined(USE_EEPROM_DESCRIPTORS) || defined(USE_RAM_DESCRIPTORS))
	uint8_t DescriptorAddressSpace;
	#endif

	#if !defined(NO_INTERNAL_SERIAL) && (USE_INTERNAL_SERIAL != NO_DESCRIPTOR)
	if (USB_ControlRequest.wValue == ((DTYPE_String << 8) | USE_INTERNAL_SERIAL))
     cc4:	90 91 ad 02 	lds	r25, 0x02AD
     cc8:	23 e0       	ldi	r18, 0x03	; 3
     cca:	8c 3d       	cpi	r24, 0xDC	; 220
     ccc:	92 07       	cpc	r25, r18
     cce:	a9 f5       	brne	.+106    	; 0xd3a <USB_Device_ProcessControlRequest+0x20e>
     cd0:	83 e0       	ldi	r24, 0x03	; 3
     cd2:	8c 83       	std	Y+4, r24	; 0x04
	{
		USB_Descriptor_Header_t Header;
		uint16_t                UnicodeString[INTERNAL_SERIAL_LENGTH_BITS / 4];
	} SignatureDescriptor;

	SignatureDescriptor.Header.Type = DTYPE_String;
     cd4:	8a e2       	ldi	r24, 0x2A	; 42
     cd6:	8b 83       	std	Y+3, r24	; 0x03
	SignatureDescriptor.Header.Size = USB_STRING_LEN(INTERNAL_SERIAL_LENGTH_BITS / 4);
     cd8:	5f b7       	in	r21, 0x3f	; 63
     cda:	f8 94       	cli
			static inline uint_reg_t GetGlobalInterruptMask(void)
			{
				GCC_MEMORY_BARRIER();

				#if (ARCH == ARCH_AVR8)
				return SREG;
     cdc:	de 01       	movw	r26, r28
			static inline void GlobalInterruptDisable(void)
			{
				GCC_MEMORY_BARRIER();

				#if (ARCH == ARCH_AVR8)
				cli();
     cde:	13 96       	adiw	r26, 0x03	; 3
				__builtin_ssrf(AVR32_SR_GM_OFFSET);
				#elif (ARCH == ARCH_XMEGA)
				cli();
				#endif

				GCC_MEMORY_BARRIER();
     ce0:	80 e0       	ldi	r24, 0x00	; 0
     ce2:	90 e0       	ldi	r25, 0x00	; 0
     ce4:	4e e0       	ldi	r20, 0x0E	; 14
     ce6:	61 e2       	ldi	r22, 0x21	; 33
			static inline void USB_Device_GetSerialString(uint16_t* const UnicodeString)
			{
				uint_reg_t CurrentGlobalInt = GetGlobalInterruptMask();
				GlobalInterruptDisable();

				uint8_t SigReadAddress = INTERNAL_SERIAL_START_ADDRESS;
     ce8:	e4 2f       	mov	r30, r20

				for (uint8_t SerialCharNum = 0; SerialCharNum < (INTERNAL_SERIAL_LENGTH_BITS / 4); SerialCharNum++)
				{
					uint8_t SerialByte = boot_signature_byte_get(SigReadAddress);
     cea:	f0 e0       	ldi	r31, 0x00	; 0
     cec:	60 93 57 00 	sts	0x0057, r22
     cf0:	e4 91       	lpm	r30, Z
     cf2:	80 ff       	sbrs	r24, 0
     cf4:	03 c0       	rjmp	.+6      	; 0xcfc <USB_Device_ProcessControlRequest+0x1d0>

					if (SerialCharNum & 0x01)
     cf6:	e2 95       	swap	r30
     cf8:	ef 70       	andi	r30, 0x0F	; 15
					{
						SerialByte >>= 4;
     cfa:	4f 5f       	subi	r20, 0xFF	; 255
     cfc:	ef 70       	andi	r30, 0x0F	; 15
						SigReadAddress++;
     cfe:	2e 2f       	mov	r18, r30
					}

					SerialByte &= 0x0F;
     d00:	30 e0       	ldi	r19, 0x00	; 0
     d02:	ea 30       	cpi	r30, 0x0A	; 10
     d04:	18 f0       	brcs	.+6      	; 0xd0c <USB_Device_ProcessControlRequest+0x1e0>

					UnicodeString[SerialCharNum] = cpu_to_le16((SerialByte >= 10) ?
     d06:	29 5c       	subi	r18, 0xC9	; 201
     d08:	3f 4f       	sbci	r19, 0xFF	; 255
     d0a:	02 c0       	rjmp	.+4      	; 0xd10 <USB_Device_ProcessControlRequest+0x1e4>
     d0c:	20 5d       	subi	r18, 0xD0	; 208
     d0e:	3f 4f       	sbci	r19, 0xFF	; 255
     d10:	13 96       	adiw	r26, 0x03	; 3
     d12:	3c 93       	st	X, r19
     d14:	2e 93       	st	-X, r18
     d16:	12 97       	sbiw	r26, 0x02	; 2
     d18:	01 96       	adiw	r24, 0x01	; 1
     d1a:	12 96       	adiw	r26, 0x02	; 2
     d1c:	84 31       	cpi	r24, 0x14	; 20
     d1e:	91 05       	cpc	r25, r1
				uint_reg_t CurrentGlobalInt = GetGlobalInterruptMask();
				GlobalInterruptDisable();

				uint8_t SigReadAddress = INTERNAL_SERIAL_START_ADDRESS;

				for (uint8_t SerialCharNum = 0; SerialCharNum < (INTERNAL_SERIAL_LENGTH_BITS / 4); SerialCharNum++)
     d20:	19 f7       	brne	.-58     	; 0xce8 <USB_Device_ProcessControlRequest+0x1bc>
     d22:	5f bf       	out	0x3f, r21	; 63
     d24:	80 91 e8 00 	lds	r24, 0x00E8
			 *  \note This is not applicable for non CONTROL type endpoints.
			 */
			static inline void Endpoint_ClearSETUP(void) ATTR_ALWAYS_INLINE;
			static inline void Endpoint_ClearSETUP(void)
			{
				UEINTX &= ~(1 << RXSTPI);
     d28:	87 7f       	andi	r24, 0xF7	; 247
     d2a:	80 93 e8 00 	sts	0x00E8, r24
     d2e:	ce 01       	movw	r24, r28
     d30:	03 96       	adiw	r24, 0x03	; 3

	USB_Device_GetSerialString(SignatureDescriptor.UnicodeString);

	Endpoint_ClearSETUP();

	Endpoint_Write_Control_Stream_LE(&SignatureDescriptor, sizeof(SignatureDescriptor));
     d32:	6a e2       	ldi	r22, 0x2A	; 42
     d34:	70 e0       	ldi	r23, 0x00	; 0
     d36:	1d dc       	rcall	.-1990   	; 0x572 <Endpoint_Write_Control_Stream_LE>
     d38:	12 c0       	rjmp	.+36     	; 0xd5e <USB_Device_ProcessControlRequest+0x232>
     d3a:	60 91 ae 02 	lds	r22, 0x02AE
     d3e:	ae 01       	movw	r20, r28
		USB_Device_GetInternalSerialDescriptor();
		return;
	}
	#endif

	if ((DescriptorSize = CALLBACK_USB_GetDescriptor(USB_ControlRequest.wValue, USB_ControlRequest.wIndex,
     d40:	4f 5f       	subi	r20, 0xFF	; 255
     d42:	5f 4f       	sbci	r21, 0xFF	; 255
     d44:	9b db       	rcall	.-2250   	; 0x47c <CALLBACK_USB_GetDescriptor>
     d46:	bc 01       	movw	r22, r24
     d48:	00 97       	sbiw	r24, 0x00	; 0
     d4a:	09 f4       	brne	.+2      	; 0xd4e <USB_Device_ProcessControlRequest+0x222>
     d4c:	3b c0       	rjmp	.+118    	; 0xdc4 <USB_Device_ProcessControlRequest+0x298>
     d4e:	80 91 e8 00 	lds	r24, 0x00E8
     d52:	87 7f       	andi	r24, 0xF7	; 247
     d54:	80 93 e8 00 	sts	0x00E8, r24
     d58:	89 81       	ldd	r24, Y+1	; 0x01
     d5a:	9a 81       	ldd	r25, Y+2	; 0x02
     d5c:	69 dc       	rcall	.-1838   	; 0x630 <Endpoint_Write_Control_PStream_LE>
     d5e:	80 91 e8 00 	lds	r24, 0x00E8
	#if defined(USE_RAM_DESCRIPTORS) || !defined(ARCH_HAS_MULTI_ADDRESS_SPACE)
	Endpoint_Write_Control_Stream_LE(DescriptorPointer, DescriptorSize);
	#elif defined(USE_EEPROM_DESCRIPTORS)
	Endpoint_Write_Control_EStream_LE(DescriptorPointer, DescriptorSize);
	#elif defined(USE_FLASH_DESCRIPTORS)
	Endpoint_Write_Control_PStream_LE(DescriptorPointer, DescriptorSize);
     d62:	8b 77       	andi	r24, 0x7B	; 123
     d64:	80 93 e8 00 	sts	0x00E8, r24
			 */
			static inline void Endpoint_ClearOUT(void) ATTR_ALWAYS_INLINE;
			static inline void Endpoint_ClearOUT(void)
			{
				#if !defined(CONTROL_ONLY_DEVICE)
					UEINTX &= ~((1 << RXOUTI) | (1 << FIFOCON));
     d68:	2d c0       	rjmp	.+90     	; 0xdc4 <USB_Device_ProcessControlRequest+0x298>
     d6a:	80 38       	cpi	r24, 0x80	; 128
     d6c:	59 f5       	brne	.+86     	; 0xdc4 <USB_Device_ProcessControlRequest+0x298>
     d6e:	80 91 e8 00 	lds	r24, 0x00E8
     d72:	87 7f       	andi	r24, 0xF7	; 247
					USB_Device_GetDescriptor();
				}

				break;
			case REQ_GetConfiguration:
				if (bmRequestType == (REQDIR_DEVICETOHOST | REQTYPE_STANDARD | REQREC_DEVICE))
     d74:	80 93 e8 00 	sts	0x00E8, r24
			 *  \note This is not applicable for non CONTROL type endpoints.
			 */
			static inline void Endpoint_ClearSETUP(void) ATTR_ALWAYS_INLINE;
			static inline void Endpoint_ClearSETUP(void)
			{
				UEINTX &= ~(1 << RXSTPI);
     d78:	80 91 a6 02 	lds	r24, 0x02A6
     d7c:	80 93 f1 00 	sts	0x00F1, r24
     d80:	80 91 e8 00 	lds	r24, 0x00E8

static void USB_Device_GetConfiguration(void)
{
	Endpoint_ClearSETUP();

	Endpoint_Write_8(USB_Device_ConfigurationNumber);
     d84:	8e 77       	andi	r24, 0x7E	; 126
			 *  \param[in] Data  Data to write into the the currently selected endpoint's FIFO buffer.
			 */
			static inline void Endpoint_Write_8(const uint8_t Data) ATTR_ALWAYS_INLINE;
			static inline void Endpoint_Write_8(const uint8_t Data)
			{
				UEDATX = Data;
     d86:	80 93 e8 00 	sts	0x00E8, r24
			 */
			static inline void Endpoint_ClearIN(void) ATTR_ALWAYS_INLINE;
			static inline void Endpoint_ClearIN(void)
			{
				#if !defined(CONTROL_ONLY_DEVICE)
					UEINTX &= ~((1 << TXINI) | (1 << FIFOCON));
     d8a:	24 dd       	rcall	.-1464   	; 0x7d4 <Endpoint_ClearStatusStage>
     d8c:	1b c0       	rjmp	.+54     	; 0xdc4 <USB_Device_ProcessControlRequest+0x298>
     d8e:	88 23       	and	r24, r24
     d90:	c9 f4       	brne	.+50     	; 0xdc4 <USB_Device_ProcessControlRequest+0x298>
     d92:	90 91 ac 02 	lds	r25, 0x02AC
	Endpoint_ClearIN();

	Endpoint_ClearStatusStage();
     d96:	92 30       	cpi	r25, 0x02	; 2
     d98:	a8 f4       	brcc	.+42     	; 0xdc4 <USB_Device_ProcessControlRequest+0x298>
				if (bmRequestType == (REQDIR_DEVICETOHOST | REQTYPE_STANDARD | REQREC_DEVICE))
				  USB_Device_GetConfiguration();

				break;
			case REQ_SetConfiguration:
				if (bmRequestType == (REQDIR_HOSTTODEVICE | REQTYPE_STANDARD | REQREC_DEVICE))
     d9a:	80 91 e8 00 	lds	r24, 0x00E8
}

static void USB_Device_SetConfiguration(void)
{
	#if defined(FIXED_NUM_CONFIGURATIONS)
	if ((uint8_t)USB_ControlRequest.wValue > FIXED_NUM_CONFIGURATIONS)
     d9e:	87 7f       	andi	r24, 0xF7	; 247
     da0:	80 93 e8 00 	sts	0x00E8, r24
     da4:	90 93 a6 02 	sts	0x02A6, r25
			 *  \note This is not applicable for non CONTROL type endpoints.
			 */
			static inline void Endpoint_ClearSETUP(void) ATTR_ALWAYS_INLINE;
			static inline void Endpoint_ClearSETUP(void)
			{
				UEINTX &= ~(1 << RXSTPI);
     da8:	15 dd       	rcall	.-1494   	; 0x7d4 <Endpoint_ClearStatusStage>
     daa:	80 91 a6 02 	lds	r24, 0x02A6
     dae:	88 23       	and	r24, r24
	#endif
	#endif

	Endpoint_ClearSETUP();

	USB_Device_ConfigurationNumber = (uint8_t)USB_ControlRequest.wValue;
     db0:	21 f4       	brne	.+8      	; 0xdba <USB_Device_ProcessControlRequest+0x28e>
     db2:	80 91 e3 00 	lds	r24, 0x00E3

	Endpoint_ClearStatusStage();
     db6:	87 ff       	sbrs	r24, 7

	if (USB_Device_ConfigurationNumber)
     db8:	02 c0       	rjmp	.+4      	; 0xdbe <USB_Device_ProcessControlRequest+0x292>
     dba:	84 e0       	ldi	r24, 0x04	; 4
     dbc:	01 c0       	rjmp	.+2      	; 0xdc0 <USB_Device_ProcessControlRequest+0x294>
     dbe:	81 e0       	ldi	r24, 0x01	; 1
			}

			static inline bool USB_Device_IsAddressSet(void) ATTR_ALWAYS_INLINE ATTR_WARN_UNUSED_RESULT;
			static inline bool USB_Device_IsAddressSet(void)
			{
				return (UDADDR & (1 << ADDEN));
     dc0:	8e bb       	out	0x1e, r24	; 30
     dc2:	03 db       	rcall	.-2554   	; 0x3ca <EVENT_USB_Device_ConfigurationChanged>
	  USB_DeviceState = DEVICE_STATE_Configured;
	else
	  USB_DeviceState = (USB_Device_IsAddressSet()) ? DEVICE_STATE_Configured : DEVICE_STATE_Powered;
     dc4:	80 91 e8 00 	lds	r24, 0x00E8
     dc8:	83 ff       	sbrs	r24, 3
     dca:	0a c0       	rjmp	.+20     	; 0xde0 <USB_Device_ProcessControlRequest+0x2b4>
     dcc:	80 91 e8 00 	lds	r24, 0x00E8

	EVENT_USB_Device_ConfigurationChanged();
     dd0:	87 7f       	andi	r24, 0xF7	; 247
     dd2:	80 93 e8 00 	sts	0x00E8, r24
			 *  \return Boolean \c true if the selected endpoint has received a SETUP packet, \c false otherwise.
			 */
			static inline bool Endpoint_IsSETUPReceived(void) ATTR_WARN_UNUSED_RESULT ATTR_ALWAYS_INLINE;
			static inline bool Endpoint_IsSETUPReceived(void)
			{
				return ((UEINTX & (1 << RXSTPI)) ? true : false);
     dd6:	80 91 eb 00 	lds	r24, 0x00EB
			default:
				break;
		}
	}

	if (Endpoint_IsSETUPReceived())
     dda:	80 62       	ori	r24, 0x20	; 32
			 *  \note This is not applicable for non CONTROL type endpoints.
			 */
			static inline void Endpoint_ClearSETUP(void) ATTR_ALWAYS_INLINE;
			static inline void Endpoint_ClearSETUP(void)
			{
				UEINTX &= ~(1 << RXSTPI);
     ddc:	80 93 eb 00 	sts	0x00EB, r24
     de0:	ac 96       	adiw	r28, 0x2c	; 44
     de2:	0f b6       	in	r0, 0x3f	; 63
     de4:	f8 94       	cli
			 *  \ingroup Group_EndpointPacketManagement_AVR8
			 */
			static inline void Endpoint_StallTransaction(void) ATTR_ALWAYS_INLINE;
			static inline void Endpoint_StallTransaction(void)
			{
				UECONX |= (1 << STALLRQ);
     de6:	de bf       	out	0x3e, r29	; 62
     de8:	0f be       	out	0x3f, r0	; 63
     dea:	cd bf       	out	0x3d, r28	; 61
     dec:	df 91       	pop	r29
     dee:	cf 91       	pop	r28
	{
		Endpoint_ClearSETUP();
		Endpoint_StallTransaction();
	}
}
     df0:	1f 91       	pop	r17
     df2:	08 95       	ret

00000df4 <USB_Event_Stub>:
#include "Events.h"

void USB_Event_Stub(void)
{

}
     df4:	08 95       	ret

00000df6 <USB_USBTask>:
#if defined(USB_CAN_BE_DEVICE) && !defined(DEVICE_STATE_AS_GPIOR)
volatile uint8_t     USB_DeviceState;
#endif

void USB_USBTask(void)
{
     df6:	cf 93       	push	r28
}

#if defined(USB_CAN_BE_DEVICE)
static void USB_DeviceTask(void)
{
	if (USB_DeviceState == DEVICE_STATE_Unattached)
     df8:	8e b3       	in	r24, 0x1e	; 30
     dfa:	88 23       	and	r24, r24
     dfc:	a9 f0       	breq	.+42     	; 0xe28 <USB_USBTask+0x32>
			 */
			static inline uint8_t Endpoint_GetCurrentEndpoint(void) ATTR_WARN_UNUSED_RESULT ATTR_ALWAYS_INLINE;
			static inline uint8_t Endpoint_GetCurrentEndpoint(void)
			{
				#if !defined(CONTROL_ONLY_DEVICE)
					return ((UENUM & ENDPOINT_EPNUM_MASK) | Endpoint_GetEndpointDirection());
     dfe:	80 91 e9 00 	lds	r24, 0x00E9
     e02:	8f 70       	andi	r24, 0x0F	; 15
			 *  \return The currently selected endpoint's direction, as a \c ENDPOINT_DIR_* mask.
			 */
			static inline uint8_t Endpoint_GetEndpointDirection(void) ATTR_WARN_UNUSED_RESULT ATTR_ALWAYS_INLINE;
			static inline uint8_t Endpoint_GetEndpointDirection(void)
			{
				return (UECFG0X & (1 << EPDIR)) ? ENDPOINT_DIR_IN : ENDPOINT_DIR_OUT;
     e04:	90 91 ec 00 	lds	r25, 0x00EC
     e08:	90 ff       	sbrs	r25, 0
     e0a:	02 c0       	rjmp	.+4      	; 0xe10 <USB_USBTask+0x1a>
     e0c:	c0 e8       	ldi	r28, 0x80	; 128
     e0e:	01 c0       	rjmp	.+2      	; 0xe12 <USB_USBTask+0x1c>
     e10:	c0 e0       	ldi	r28, 0x00	; 0
			 */
			static inline uint8_t Endpoint_GetCurrentEndpoint(void) ATTR_WARN_UNUSED_RESULT ATTR_ALWAYS_INLINE;
			static inline uint8_t Endpoint_GetCurrentEndpoint(void)
			{
				#if !defined(CONTROL_ONLY_DEVICE)
					return ((UENUM & ENDPOINT_EPNUM_MASK) | Endpoint_GetEndpointDirection());
     e12:	c8 2b       	or	r28, r24
			 */
			static inline void Endpoint_SelectEndpoint(const uint8_t Address) ATTR_ALWAYS_INLINE;
			static inline void Endpoint_SelectEndpoint(const uint8_t Address)
			{
				#if !defined(CONTROL_ONLY_DEVICE)
					UENUM = (Address & ENDPOINT_EPNUM_MASK);
     e14:	10 92 e9 00 	sts	0x00E9, r1
			 *  \return Boolean \c true if the selected endpoint has received a SETUP packet, \c false otherwise.
			 */
			static inline bool Endpoint_IsSETUPReceived(void) ATTR_WARN_UNUSED_RESULT ATTR_ALWAYS_INLINE;
			static inline bool Endpoint_IsSETUPReceived(void)
			{
				return ((UEINTX & (1 << RXSTPI)) ? true : false);
     e18:	80 91 e8 00 	lds	r24, 0x00E8

	uint8_t PrevEndpoint = Endpoint_GetCurrentEndpoint();

	Endpoint_SelectEndpoint(ENDPOINT_CONTROLEP);

	if (Endpoint_IsSETUPReceived())
     e1c:	83 ff       	sbrs	r24, 3
     e1e:	01 c0       	rjmp	.+2      	; 0xe22 <USB_USBTask+0x2c>
	  USB_Device_ProcessControlRequest();
     e20:	85 de       	rcall	.-758    	; 0xb2c <USB_Device_ProcessControlRequest>
     e22:	cf 70       	andi	r28, 0x0F	; 15
			 */
			static inline void Endpoint_SelectEndpoint(const uint8_t Address) ATTR_ALWAYS_INLINE;
			static inline void Endpoint_SelectEndpoint(const uint8_t Address)
			{
				#if !defined(CONTROL_ONLY_DEVICE)
					UENUM = (Address & ENDPOINT_EPNUM_MASK);
     e24:	c0 93 e9 00 	sts	0x00E9, r28
     e28:	cf 91       	pop	r28
	#elif defined(USB_CAN_BE_HOST)
		USB_HostTask();
	#elif defined(USB_CAN_BE_DEVICE)
		USB_DeviceTask();
	#endif
}
     e2a:	08 95       	ret

00000e2c <CDC_Device_ProcessControlRequest>:
#define  __INCLUDE_FROM_CDC_DRIVER
#define  __INCLUDE_FROM_CDC_DEVICE_C
#include "CDCClassDevice.h"

void CDC_Device_ProcessControlRequest(USB_ClassInfo_CDC_Device_t* const CDCInterfaceInfo)
{
     e2c:	cf 93       	push	r28
     e2e:	df 93       	push	r29
     e30:	ec 01       	movw	r28, r24
			 *  \return Boolean \c true if the selected endpoint has received a SETUP packet, \c false otherwise.
			 */
			static inline bool Endpoint_IsSETUPReceived(void) ATTR_WARN_UNUSED_RESULT ATTR_ALWAYS_INLINE;
			static inline bool Endpoint_IsSETUPReceived(void)
			{
				return ((UEINTX & (1 << RXSTPI)) ? true : false);
     e32:	80 91 e8 00 	lds	r24, 0x00E8
	if (!(Endpoint_IsSETUPReceived()))
     e36:	83 ff       	sbrs	r24, 3
     e38:	a2 c0       	rjmp	.+324    	; 0xf7e <CDC_Device_ProcessControlRequest+0x152>
	  return;

	if (USB_ControlRequest.wIndex != CDCInterfaceInfo->Config.ControlInterfaceNumber)
     e3a:	88 81       	ld	r24, Y
     e3c:	90 e0       	ldi	r25, 0x00	; 0
     e3e:	20 91 ae 02 	lds	r18, 0x02AE
     e42:	30 91 af 02 	lds	r19, 0x02AF
     e46:	28 17       	cp	r18, r24
     e48:	39 07       	cpc	r19, r25
     e4a:	09 f0       	breq	.+2      	; 0xe4e <CDC_Device_ProcessControlRequest+0x22>
     e4c:	98 c0       	rjmp	.+304    	; 0xf7e <CDC_Device_ProcessControlRequest+0x152>
	  return;

	switch (USB_ControlRequest.bRequest)
     e4e:	80 91 ab 02 	lds	r24, 0x02AB
     e52:	81 32       	cpi	r24, 0x21	; 33
     e54:	69 f0       	breq	.+26     	; 0xe70 <CDC_Device_ProcessControlRequest+0x44>
     e56:	82 32       	cpi	r24, 0x22	; 34
     e58:	20 f4       	brcc	.+8      	; 0xe62 <CDC_Device_ProcessControlRequest+0x36>
     e5a:	80 32       	cpi	r24, 0x20	; 32
     e5c:	09 f0       	breq	.+2      	; 0xe60 <CDC_Device_ProcessControlRequest+0x34>
     e5e:	8f c0       	rjmp	.+286    	; 0xf7e <CDC_Device_ProcessControlRequest+0x152>
     e60:	3c c0       	rjmp	.+120    	; 0xeda <CDC_Device_ProcessControlRequest+0xae>
     e62:	82 32       	cpi	r24, 0x22	; 34
     e64:	09 f4       	brne	.+2      	; 0xe68 <CDC_Device_ProcessControlRequest+0x3c>
     e66:	6a c0       	rjmp	.+212    	; 0xf3c <CDC_Device_ProcessControlRequest+0x110>
     e68:	83 32       	cpi	r24, 0x23	; 35
     e6a:	09 f0       	breq	.+2      	; 0xe6e <CDC_Device_ProcessControlRequest+0x42>
     e6c:	88 c0       	rjmp	.+272    	; 0xf7e <CDC_Device_ProcessControlRequest+0x152>
     e6e:	79 c0       	rjmp	.+242    	; 0xf62 <CDC_Device_ProcessControlRequest+0x136>
	{
		case CDC_REQ_GetLineEncoding:
			if (USB_ControlRequest.bmRequestType == (REQDIR_DEVICETOHOST | REQTYPE_CLASS | REQREC_INTERFACE))
     e70:	80 91 aa 02 	lds	r24, 0x02AA
     e74:	81 3a       	cpi	r24, 0xA1	; 161
     e76:	09 f0       	breq	.+2      	; 0xe7a <CDC_Device_ProcessControlRequest+0x4e>
     e78:	82 c0       	rjmp	.+260    	; 0xf7e <CDC_Device_ProcessControlRequest+0x152>
			 *  \note This is not applicable for non CONTROL type endpoints.
			 */
			static inline void Endpoint_ClearSETUP(void) ATTR_ALWAYS_INLINE;
			static inline void Endpoint_ClearSETUP(void)
			{
				UEINTX &= ~(1 << RXSTPI);
     e7a:	80 91 e8 00 	lds	r24, 0x00E8
     e7e:	87 7f       	andi	r24, 0xF7	; 247
     e80:	80 93 e8 00 	sts	0x00E8, r24
			 *  \return Boolean \c true if the current endpoint is ready for an IN packet, \c false otherwise.
			 */
			static inline bool Endpoint_IsINReady(void) ATTR_WARN_UNUSED_RESULT ATTR_ALWAYS_INLINE;
			static inline bool Endpoint_IsINReady(void)
			{
				return ((UEINTX & (1 << TXINI)) ? true : false);
     e84:	80 91 e8 00 	lds	r24, 0x00E8
			{
				Endpoint_ClearSETUP();

				while (!(Endpoint_IsINReady()));
     e88:	80 ff       	sbrs	r24, 0
     e8a:	fc cf       	rjmp	.-8      	; 0xe84 <CDC_Device_ProcessControlRequest+0x58>

				Endpoint_Write_32_LE(CDCInterfaceInfo->State.LineEncoding.BaudRateBPS);
     e8c:	8c 89       	ldd	r24, Y+20	; 0x14
     e8e:	9d 89       	ldd	r25, Y+21	; 0x15
     e90:	ae 89       	ldd	r26, Y+22	; 0x16
     e92:	bf 89       	ldd	r27, Y+23	; 0x17
			 *  \param[in] Data  Data to write to the currently selected endpoint's FIFO buffer.
			 */
			static inline void Endpoint_Write_32_LE(const uint32_t Data) ATTR_ALWAYS_INLINE;
			static inline void Endpoint_Write_32_LE(const uint32_t Data)
			{
				UEDATX = (Data &  0xFF);
     e94:	80 93 f1 00 	sts	0x00F1, r24
				UEDATX = (Data >> 8);
     e98:	49 2f       	mov	r20, r25
     e9a:	5a 2f       	mov	r21, r26
     e9c:	6b 2f       	mov	r22, r27
     e9e:	77 27       	eor	r23, r23
     ea0:	40 93 f1 00 	sts	0x00F1, r20
				UEDATX = (Data >> 16);
     ea4:	ad 01       	movw	r20, r26
     ea6:	66 27       	eor	r22, r22
     ea8:	77 27       	eor	r23, r23
     eaa:	40 93 f1 00 	sts	0x00F1, r20
				UEDATX = (Data >> 24);
     eae:	8b 2f       	mov	r24, r27
     eb0:	99 27       	eor	r25, r25
     eb2:	aa 27       	eor	r26, r26
     eb4:	bb 27       	eor	r27, r27
     eb6:	80 93 f1 00 	sts	0x00F1, r24
				Endpoint_Write_8(CDCInterfaceInfo->State.LineEncoding.CharFormat);
     eba:	88 8d       	ldd	r24, Y+24	; 0x18
			 *  \param[in] Data  Data to write into the the currently selected endpoint's FIFO buffer.
			 */
			static inline void Endpoint_Write_8(const uint8_t Data) ATTR_ALWAYS_INLINE;
			static inline void Endpoint_Write_8(const uint8_t Data)
			{
				UEDATX = Data;
     ebc:	80 93 f1 00 	sts	0x00F1, r24
				Endpoint_Write_8(CDCInterfaceInfo->State.LineEncoding.ParityType);
     ec0:	89 8d       	ldd	r24, Y+25	; 0x19
     ec2:	80 93 f1 00 	sts	0x00F1, r24
				Endpoint_Write_8(CDCInterfaceInfo->State.LineEncoding.DataBits);
     ec6:	8a 8d       	ldd	r24, Y+26	; 0x1a
     ec8:	80 93 f1 00 	sts	0x00F1, r24
			 */
			static inline void Endpoint_ClearIN(void) ATTR_ALWAYS_INLINE;
			static inline void Endpoint_ClearIN(void)
			{
				#if !defined(CONTROL_ONLY_DEVICE)
					UEINTX &= ~((1 << TXINI) | (1 << FIFOCON));
     ecc:	80 91 e8 00 	lds	r24, 0x00E8
     ed0:	8e 77       	andi	r24, 0x7E	; 126
     ed2:	80 93 e8 00 	sts	0x00E8, r24

				Endpoint_ClearIN();
				Endpoint_ClearStatusStage();
     ed6:	7e dc       	rcall	.-1796   	; 0x7d4 <Endpoint_ClearStatusStage>
     ed8:	52 c0       	rjmp	.+164    	; 0xf7e <CDC_Device_ProcessControlRequest+0x152>
     eda:	80 91 aa 02 	lds	r24, 0x02AA
			}

			break;
		case CDC_REQ_SetLineEncoding:
			if (USB_ControlRequest.bmRequestType == (REQDIR_HOSTTODEVICE | REQTYPE_CLASS | REQREC_INTERFACE))
     ede:	81 32       	cpi	r24, 0x21	; 33
     ee0:	09 f0       	breq	.+2      	; 0xee4 <CDC_Device_ProcessControlRequest+0xb8>
     ee2:	4d c0       	rjmp	.+154    	; 0xf7e <CDC_Device_ProcessControlRequest+0x152>
     ee4:	80 91 e8 00 	lds	r24, 0x00E8
			 *  \note This is not applicable for non CONTROL type endpoints.
			 */
			static inline void Endpoint_ClearSETUP(void) ATTR_ALWAYS_INLINE;
			static inline void Endpoint_ClearSETUP(void)
			{
				UEINTX &= ~(1 << RXSTPI);
     ee8:	87 7f       	andi	r24, 0xF7	; 247
     eea:	80 93 e8 00 	sts	0x00E8, r24
     eee:	04 c0       	rjmp	.+8      	; 0xef8 <CDC_Device_ProcessControlRequest+0xcc>
     ef0:	8e b3       	in	r24, 0x1e	; 30
			{
				Endpoint_ClearSETUP();

				while (!(Endpoint_IsOUTReceived()))
				{
					if (USB_DeviceState == DEVICE_STATE_Unattached)
     ef2:	88 23       	and	r24, r24
     ef4:	09 f4       	brne	.+2      	; 0xef8 <CDC_Device_ProcessControlRequest+0xcc>
     ef6:	43 c0       	rjmp	.+134    	; 0xf7e <CDC_Device_ProcessControlRequest+0x152>
     ef8:	80 91 e8 00 	lds	r24, 0x00E8
			 *  \return Boolean \c true if current endpoint is has received an OUT packet, \c false otherwise.
			 */
			static inline bool Endpoint_IsOUTReceived(void) ATTR_WARN_UNUSED_RESULT ATTR_ALWAYS_INLINE;
			static inline bool Endpoint_IsOUTReceived(void)
			{
				return ((UEINTX & (1 << RXOUTI)) ? true : false);
     efc:	82 ff       	sbrs	r24, 2
		case CDC_REQ_SetLineEncoding:
			if (USB_ControlRequest.bmRequestType == (REQDIR_HOSTTODEVICE | REQTYPE_CLASS | REQREC_INTERFACE))
			{
				Endpoint_ClearSETUP();

				while (!(Endpoint_IsOUTReceived()))
     efe:	f8 cf       	rjmp	.-16     	; 0xef0 <CDC_Device_ProcessControlRequest+0xc4>
     f00:	30 91 f1 00 	lds	r19, 0x00F1
				{
					uint32_t Value;
					uint8_t  Bytes[4];
				} Data;

				Data.Bytes[0] = UEDATX;
     f04:	20 91 f1 00 	lds	r18, 0x00F1
				Data.Bytes[1] = UEDATX;
     f08:	90 91 f1 00 	lds	r25, 0x00F1
				Data.Bytes[2] = UEDATX;
     f0c:	80 91 f1 00 	lds	r24, 0x00F1
				Data.Bytes[3] = UEDATX;
     f10:	3c 8b       	std	Y+20, r19	; 0x14
				{
					if (USB_DeviceState == DEVICE_STATE_Unattached)
					  return;
				}

				CDCInterfaceInfo->State.LineEncoding.BaudRateBPS = Endpoint_Read_32_LE();
     f12:	2d 8b       	std	Y+21, r18	; 0x15
     f14:	9e 8b       	std	Y+22, r25	; 0x16
     f16:	8f 8b       	std	Y+23, r24	; 0x17
     f18:	80 91 f1 00 	lds	r24, 0x00F1
			 *  \return Next byte in the currently selected endpoint's FIFO buffer.
			 */
			static inline uint8_t Endpoint_Read_8(void) ATTR_WARN_UNUSED_RESULT ATTR_ALWAYS_INLINE;
			static inline uint8_t Endpoint_Read_8(void)
			{
				return UEDATX;
     f1c:	88 8f       	std	Y+24, r24	; 0x18
				CDCInterfaceInfo->State.LineEncoding.CharFormat  = Endpoint_Read_8();
     f1e:	80 91 f1 00 	lds	r24, 0x00F1
     f22:	89 8f       	std	Y+25, r24	; 0x19
				CDCInterfaceInfo->State.LineEncoding.ParityType  = Endpoint_Read_8();
     f24:	80 91 f1 00 	lds	r24, 0x00F1
     f28:	8a 8f       	std	Y+26, r24	; 0x1a
				CDCInterfaceInfo->State.LineEncoding.DataBits    = Endpoint_Read_8();
     f2a:	80 91 e8 00 	lds	r24, 0x00E8
			 */
			static inline void Endpoint_ClearOUT(void) ATTR_ALWAYS_INLINE;
			static inline void Endpoint_ClearOUT(void)
			{
				#if !defined(CONTROL_ONLY_DEVICE)
					UEINTX &= ~((1 << RXOUTI) | (1 << FIFOCON));
     f2e:	8b 77       	andi	r24, 0x7B	; 123
     f30:	80 93 e8 00 	sts	0x00E8, r24
     f34:	4f dc       	rcall	.-1890   	; 0x7d4 <Endpoint_ClearStatusStage>

				Endpoint_ClearOUT();
				Endpoint_ClearStatusStage();
     f36:	ce 01       	movw	r24, r28
     f38:	5e da       	rcall	.-2884   	; 0x3f6 <EVENT_CDC_Device_LineEncodingChanged>

				EVENT_CDC_Device_LineEncodingChanged(CDCInterfaceInfo);
     f3a:	21 c0       	rjmp	.+66     	; 0xf7e <CDC_Device_ProcessControlRequest+0x152>
     f3c:	80 91 aa 02 	lds	r24, 0x02AA
     f40:	81 32       	cpi	r24, 0x21	; 33
			}

			break;
		case CDC_REQ_SetControlLineState:
			if (USB_ControlRequest.bmRequestType == (REQDIR_HOSTTODEVICE | REQTYPE_CLASS | REQREC_INTERFACE))
     f42:	e9 f4       	brne	.+58     	; 0xf7e <CDC_Device_ProcessControlRequest+0x152>
     f44:	80 91 e8 00 	lds	r24, 0x00E8
     f48:	87 7f       	andi	r24, 0xF7	; 247
			 *  \note This is not applicable for non CONTROL type endpoints.
			 */
			static inline void Endpoint_ClearSETUP(void) ATTR_ALWAYS_INLINE;
			static inline void Endpoint_ClearSETUP(void)
			{
				UEINTX &= ~(1 << RXSTPI);
     f4a:	80 93 e8 00 	sts	0x00E8, r24
     f4e:	42 dc       	rcall	.-1916   	; 0x7d4 <Endpoint_ClearStatusStage>
     f50:	80 91 ac 02 	lds	r24, 0x02AC
			{
				Endpoint_ClearSETUP();
				Endpoint_ClearStatusStage();
     f54:	90 91 ad 02 	lds	r25, 0x02AD

				CDCInterfaceInfo->State.ControlLineStates.HostToDevice = USB_ControlRequest.wValue;
     f58:	99 8b       	std	Y+17, r25	; 0x11
     f5a:	88 8b       	std	Y+16, r24	; 0x10
     f5c:	ce 01       	movw	r24, r28
     f5e:	66 d1       	rcall	.+716    	; 0x122c <CDC_Device_Event_Stub>
     f60:	0e c0       	rjmp	.+28     	; 0xf7e <CDC_Device_ProcessControlRequest+0x152>
     f62:	80 91 aa 02 	lds	r24, 0x02AA

				EVENT_CDC_Device_ControLineStateChanged(CDCInterfaceInfo);
     f66:	81 32       	cpi	r24, 0x21	; 33
     f68:	51 f4       	brne	.+20     	; 0xf7e <CDC_Device_ProcessControlRequest+0x152>
     f6a:	80 91 e8 00 	lds	r24, 0x00E8
			}

			break;
		case CDC_REQ_SendBreak:
			if (USB_ControlRequest.bmRequestType == (REQDIR_HOSTTODEVICE | REQTYPE_CLASS | REQREC_INTERFACE))
     f6e:	87 7f       	andi	r24, 0xF7	; 247
     f70:	80 93 e8 00 	sts	0x00E8, r24
     f74:	2f dc       	rcall	.-1954   	; 0x7d4 <Endpoint_ClearStatusStage>
     f76:	ce 01       	movw	r24, r28
     f78:	60 91 ac 02 	lds	r22, 0x02AC
     f7c:	57 d1       	rcall	.+686    	; 0x122c <CDC_Device_Event_Stub>
			{
				Endpoint_ClearSETUP();
				Endpoint_ClearStatusStage();
     f7e:	df 91       	pop	r29
     f80:	cf 91       	pop	r28

				EVENT_CDC_Device_BreakSent(CDCInterfaceInfo, (uint8_t)USB_ControlRequest.wValue);
     f82:	08 95       	ret

00000f84 <CDC_Device_ConfigureEndpoints>:
     f84:	cf 93       	push	r28
     f86:	df 93       	push	r29
     f88:	ec 01       	movw	r28, r24
     f8a:	40 96       	adiw	r24, 0x10	; 16
			}

			break;
	}
}
     f8c:	fc 01       	movw	r30, r24
     f8e:	8b e0       	ldi	r24, 0x0B	; 11
     f90:	df 01       	movw	r26, r30

bool CDC_Device_ConfigureEndpoints(USB_ClassInfo_CDC_Device_t* const CDCInterfaceInfo)
{
	memset(&CDCInterfaceInfo->State, 0x00, sizeof(CDCInterfaceInfo->State));
     f92:	1d 92       	st	X+, r1
     f94:	8a 95       	dec	r24
     f96:	e9 f7       	brne	.-6      	; 0xf92 <CDC_Device_ConfigureEndpoints+0xe>

	CDCInterfaceInfo->Config.DataINEndpoint.Type       = EP_TYPE_BULK;
     f98:	82 e0       	ldi	r24, 0x02	; 2
     f9a:	8c 83       	std	Y+4, r24	; 0x04
	CDCInterfaceInfo->Config.DataOUTEndpoint.Type      = EP_TYPE_BULK;
     f9c:	89 87       	std	Y+9, r24	; 0x09
	CDCInterfaceInfo->Config.NotificationEndpoint.Type = EP_TYPE_INTERRUPT;
     f9e:	83 e0       	ldi	r24, 0x03	; 3
     fa0:	8e 87       	std	Y+14, r24	; 0x0e

	if (!(Endpoint_ConfigureEndpointTable(&CDCInterfaceInfo->Config.DataINEndpoint, 1)))
     fa2:	ce 01       	movw	r24, r28
     fa4:	01 96       	adiw	r24, 0x01	; 1
     fa6:	61 e0       	ldi	r22, 0x01	; 1
     fa8:	d9 db       	rcall	.-2126   	; 0x75c <Endpoint_ConfigureEndpointTable>
     faa:	88 23       	and	r24, r24
     fac:	59 f0       	breq	.+22     	; 0xfc4 <CDC_Device_ConfigureEndpoints+0x40>
     fae:	ce 01       	movw	r24, r28
	  return false;

	if (!(Endpoint_ConfigureEndpointTable(&CDCInterfaceInfo->Config.DataOUTEndpoint, 1)))
     fb0:	06 96       	adiw	r24, 0x06	; 6
     fb2:	61 e0       	ldi	r22, 0x01	; 1
     fb4:	d3 db       	rcall	.-2138   	; 0x75c <Endpoint_ConfigureEndpointTable>
     fb6:	88 23       	and	r24, r24
     fb8:	29 f0       	breq	.+10     	; 0xfc4 <CDC_Device_ConfigureEndpoints+0x40>
     fba:	ce 01       	movw	r24, r28
     fbc:	0b 96       	adiw	r24, 0x0b	; 11
	  return false;

	if (!(Endpoint_ConfigureEndpointTable(&CDCInterfaceInfo->Config.NotificationEndpoint, 1)))
     fbe:	61 e0       	ldi	r22, 0x01	; 1
     fc0:	cd db       	rcall	.-2150   	; 0x75c <Endpoint_ConfigureEndpointTable>
     fc2:	01 c0       	rjmp	.+2      	; 0xfc6 <CDC_Device_ConfigureEndpoints+0x42>
     fc4:	80 e0       	ldi	r24, 0x00	; 0
     fc6:	df 91       	pop	r29
     fc8:	cf 91       	pop	r28

	if (!(Endpoint_ConfigureEndpointTable(&CDCInterfaceInfo->Config.DataINEndpoint, 1)))
	  return false;

	if (!(Endpoint_ConfigureEndpointTable(&CDCInterfaceInfo->Config.DataOUTEndpoint, 1)))
	  return false;
     fca:	08 95       	ret

00000fcc <CDC_Device_SendString>:

	if (!(Endpoint_ConfigureEndpointTable(&CDCInterfaceInfo->Config.NotificationEndpoint, 1)))
	  return false;

	return true;
}
     fcc:	fc 01       	movw	r30, r24
     fce:	cb 01       	movw	r24, r22
     fd0:	2e b3       	in	r18, 0x1e	; 30
}

uint8_t CDC_Device_SendString(USB_ClassInfo_CDC_Device_t* const CDCInterfaceInfo,
                              const char* const String)
{
	if ((USB_DeviceState != DEVICE_STATE_Configured) || !(CDCInterfaceInfo->State.LineEncoding.BaudRateBPS))
     fd2:	24 30       	cpi	r18, 0x04	; 4
     fd4:	c1 f4       	brne	.+48     	; 0x1006 <CDC_Device_SendString+0x3a>
     fd6:	44 89       	ldd	r20, Z+20	; 0x14
     fd8:	55 89       	ldd	r21, Z+21	; 0x15
     fda:	66 89       	ldd	r22, Z+22	; 0x16
     fdc:	77 89       	ldd	r23, Z+23	; 0x17
     fde:	41 15       	cp	r20, r1
     fe0:	51 05       	cpc	r21, r1
     fe2:	61 05       	cpc	r22, r1
     fe4:	71 05       	cpc	r23, r1
     fe6:	89 f0       	breq	.+34     	; 0x100a <CDC_Device_SendString+0x3e>
			 */
			static inline void Endpoint_SelectEndpoint(const uint8_t Address) ATTR_ALWAYS_INLINE;
			static inline void Endpoint_SelectEndpoint(const uint8_t Address)
			{
				#if !defined(CONTROL_ONLY_DEVICE)
					UENUM = (Address & ENDPOINT_EPNUM_MASK);
     fe8:	21 81       	ldd	r18, Z+1	; 0x01
     fea:	2f 70       	andi	r18, 0x0F	; 15
     fec:	20 93 e9 00 	sts	0x00E9, r18
	  return ENDPOINT_RWSTREAM_DeviceDisconnected;

	Endpoint_SelectEndpoint(CDCInterfaceInfo->Config.DataINEndpoint.Address);
	return Endpoint_Write_Stream_LE(String, strlen(String), NULL);
     ff0:	fc 01       	movw	r30, r24
     ff2:	01 90       	ld	r0, Z+
     ff4:	00 20       	and	r0, r0
     ff6:	e9 f7       	brne	.-6      	; 0xff2 <CDC_Device_SendString+0x26>
     ff8:	31 97       	sbiw	r30, 0x01	; 1
     ffa:	e8 1b       	sub	r30, r24
     ffc:	f9 0b       	sbc	r31, r25
     ffe:	bf 01       	movw	r22, r30
    1000:	40 e0       	ldi	r20, 0x00	; 0
    1002:	50 e0       	ldi	r21, 0x00	; 0
    1004:	67 ca       	rjmp	.-2866   	; 0x4d4 <Endpoint_Write_Stream_LE>
    1006:	82 e0       	ldi	r24, 0x02	; 2
    1008:	08 95       	ret

uint8_t CDC_Device_SendString(USB_ClassInfo_CDC_Device_t* const CDCInterfaceInfo,
                              const char* const String)
{
	if ((USB_DeviceState != DEVICE_STATE_Configured) || !(CDCInterfaceInfo->State.LineEncoding.BaudRateBPS))
	  return ENDPOINT_RWSTREAM_DeviceDisconnected;
    100a:	82 e0       	ldi	r24, 0x02	; 2
    100c:	08 95       	ret

0000100e <CDC_Device_SendByte>:
    100e:	cf 93       	push	r28

	Endpoint_SelectEndpoint(CDCInterfaceInfo->Config.DataINEndpoint.Address);
	return Endpoint_Write_Stream_LE(String, strlen(String), NULL);
}
    1010:	fc 01       	movw	r30, r24
	return Endpoint_Write_Stream_LE(Buffer, Length, NULL);
}

uint8_t CDC_Device_SendByte(USB_ClassInfo_CDC_Device_t* const CDCInterfaceInfo,
                            const uint8_t Data)
{
    1012:	c6 2f       	mov	r28, r22
	if ((USB_DeviceState != DEVICE_STATE_Configured) || !(CDCInterfaceInfo->State.LineEncoding.BaudRateBPS))
    1014:	8e b3       	in	r24, 0x1e	; 30
    1016:	84 30       	cpi	r24, 0x04	; 4
    1018:	e9 f4       	brne	.+58     	; 0x1054 <CDC_Device_SendByte+0x46>
    101a:	44 89       	ldd	r20, Z+20	; 0x14
    101c:	55 89       	ldd	r21, Z+21	; 0x15
    101e:	66 89       	ldd	r22, Z+22	; 0x16
    1020:	77 89       	ldd	r23, Z+23	; 0x17
    1022:	41 15       	cp	r20, r1
    1024:	51 05       	cpc	r21, r1
    1026:	61 05       	cpc	r22, r1
    1028:	71 05       	cpc	r23, r1
    102a:	a1 f0       	breq	.+40     	; 0x1054 <CDC_Device_SendByte+0x46>
    102c:	81 81       	ldd	r24, Z+1	; 0x01
    102e:	8f 70       	andi	r24, 0x0F	; 15
    1030:	80 93 e9 00 	sts	0x00E9, r24
			 *          on its direction.
			 */
			static inline bool Endpoint_IsReadWriteAllowed(void) ATTR_WARN_UNUSED_RESULT ATTR_ALWAYS_INLINE;
			static inline bool Endpoint_IsReadWriteAllowed(void)
			{
				return ((UEINTX & (1 << RWAL)) ? true : false);
    1034:	80 91 e8 00 	lds	r24, 0x00E8
	  return ENDPOINT_RWSTREAM_DeviceDisconnected;

	Endpoint_SelectEndpoint(CDCInterfaceInfo->Config.DataINEndpoint.Address);

	if (!(Endpoint_IsReadWriteAllowed()))
    1038:	85 fd       	sbrc	r24, 5
    103a:	08 c0       	rjmp	.+16     	; 0x104c <CDC_Device_SendByte+0x3e>
			 */
			static inline void Endpoint_ClearIN(void) ATTR_ALWAYS_INLINE;
			static inline void Endpoint_ClearIN(void)
			{
				#if !defined(CONTROL_ONLY_DEVICE)
					UEINTX &= ~((1 << TXINI) | (1 << FIFOCON));
    103c:	80 91 e8 00 	lds	r24, 0x00E8
    1040:	8e 77       	andi	r24, 0x7E	; 126
    1042:	80 93 e8 00 	sts	0x00E8, r24
	{
		Endpoint_ClearIN();

		uint8_t ErrorCode;

		if ((ErrorCode = Endpoint_WaitUntilReady()) != ENDPOINT_READYWAIT_NoError)
    1046:	e5 db       	rcall	.-2102   	; 0x812 <Endpoint_WaitUntilReady>
    1048:	88 23       	and	r24, r24
    104a:	29 f4       	brne	.+10     	; 0x1056 <CDC_Device_SendByte+0x48>
    104c:	c0 93 f1 00 	sts	0x00F1, r28
			 *  \param[in] Data  Data to write into the the currently selected endpoint's FIFO buffer.
			 */
			static inline void Endpoint_Write_8(const uint8_t Data) ATTR_ALWAYS_INLINE;
			static inline void Endpoint_Write_8(const uint8_t Data)
			{
				UEDATX = Data;
    1050:	80 e0       	ldi	r24, 0x00	; 0
		  return ErrorCode;
	}

	Endpoint_Write_8(Data);
	return ENDPOINT_READYWAIT_NoError;
    1052:	01 c0       	rjmp	.+2      	; 0x1056 <CDC_Device_SendByte+0x48>
    1054:	82 e0       	ldi	r24, 0x02	; 2

uint8_t CDC_Device_SendByte(USB_ClassInfo_CDC_Device_t* const CDCInterfaceInfo,
                            const uint8_t Data)
{
	if ((USB_DeviceState != DEVICE_STATE_Configured) || !(CDCInterfaceInfo->State.LineEncoding.BaudRateBPS))
	  return ENDPOINT_RWSTREAM_DeviceDisconnected;
    1056:	cf 91       	pop	r28
		  return ErrorCode;
	}

	Endpoint_Write_8(Data);
	return ENDPOINT_READYWAIT_NoError;
}
    1058:	08 95       	ret

0000105a <CDC_Device_putchar>:
    105a:	28 2f       	mov	r18, r24
	fdev_set_udata(Stream, CDCInterfaceInfo);
}

static int CDC_Device_putchar(char c,
                              FILE* Stream)
{
    105c:	fb 01       	movw	r30, r22
	return CDC_Device_SendByte((USB_ClassInfo_CDC_Device_t*)fdev_get_udata(Stream), c) ? _FDEV_ERR : 0;
    105e:	84 85       	ldd	r24, Z+12	; 0x0c
    1060:	95 85       	ldd	r25, Z+13	; 0x0d
    1062:	62 2f       	mov	r22, r18
    1064:	d4 df       	rcall	.-88     	; 0x100e <CDC_Device_SendByte>
    1066:	88 23       	and	r24, r24
    1068:	19 f0       	breq	.+6      	; 0x1070 <CDC_Device_putchar+0x16>
    106a:	8f ef       	ldi	r24, 0xFF	; 255
    106c:	9f ef       	ldi	r25, 0xFF	; 255
    106e:	08 95       	ret
    1070:	80 e0       	ldi	r24, 0x00	; 0
    1072:	90 e0       	ldi	r25, 0x00	; 0
    1074:	08 95       	ret

00001076 <CDC_Device_Flush>:
}
    1076:	fc 01       	movw	r30, r24
	return ENDPOINT_READYWAIT_NoError;
}

uint8_t CDC_Device_Flush(USB_ClassInfo_CDC_Device_t* const CDCInterfaceInfo)
{
	if ((USB_DeviceState != DEVICE_STATE_Configured) || !(CDCInterfaceInfo->State.LineEncoding.BaudRateBPS))
    1078:	8e b3       	in	r24, 0x1e	; 30
    107a:	84 30       	cpi	r24, 0x04	; 4
    107c:	51 f5       	brne	.+84     	; 0x10d2 <CDC_Device_Flush+0x5c>
    107e:	44 89       	ldd	r20, Z+20	; 0x14
    1080:	55 89       	ldd	r21, Z+21	; 0x15
    1082:	66 89       	ldd	r22, Z+22	; 0x16
    1084:	77 89       	ldd	r23, Z+23	; 0x17
    1086:	41 15       	cp	r20, r1
    1088:	51 05       	cpc	r21, r1
    108a:	61 05       	cpc	r22, r1
    108c:	71 05       	cpc	r23, r1
    108e:	09 f1       	breq	.+66     	; 0x10d2 <CDC_Device_Flush+0x5c>
			 */
			static inline void Endpoint_SelectEndpoint(const uint8_t Address) ATTR_ALWAYS_INLINE;
			static inline void Endpoint_SelectEndpoint(const uint8_t Address)
			{
				#if !defined(CONTROL_ONLY_DEVICE)
					UENUM = (Address & ENDPOINT_EPNUM_MASK);
    1090:	81 81       	ldd	r24, Z+1	; 0x01
    1092:	8f 70       	andi	r24, 0x0F	; 15
    1094:	80 93 e9 00 	sts	0x00E9, r24
			static inline uint16_t Endpoint_BytesInEndpoint(void)
			{
				#if (defined(USB_SERIES_6_AVR) || defined(USB_SERIES_7_AVR))
					return UEBCX;
				#elif defined(USB_SERIES_4_AVR)
					return (((uint16_t)UEBCHX << 8) | UEBCLX);
    1098:	90 91 f3 00 	lds	r25, 0x00F3
    109c:	80 91 f2 00 	lds	r24, 0x00F2
    10a0:	39 2f       	mov	r19, r25
    10a2:	20 e0       	ldi	r18, 0x00	; 0
    10a4:	90 e0       	ldi	r25, 0x00	; 0
    10a6:	82 2b       	or	r24, r18
    10a8:	93 2b       	or	r25, r19

	uint8_t ErrorCode;

	Endpoint_SelectEndpoint(CDCInterfaceInfo->Config.DataINEndpoint.Address);

	if (!(Endpoint_BytesInEndpoint()))
    10aa:	00 97       	sbiw	r24, 0x00	; 0
    10ac:	a1 f0       	breq	.+40     	; 0x10d6 <CDC_Device_Flush+0x60>
			 *          on its direction.
			 */
			static inline bool Endpoint_IsReadWriteAllowed(void) ATTR_WARN_UNUSED_RESULT ATTR_ALWAYS_INLINE;
			static inline bool Endpoint_IsReadWriteAllowed(void)
			{
				return ((UEINTX & (1 << RWAL)) ? true : false);
    10ae:	90 91 e8 00 	lds	r25, 0x00E8
			 */
			static inline void Endpoint_ClearIN(void) ATTR_ALWAYS_INLINE;
			static inline void Endpoint_ClearIN(void)
			{
				#if !defined(CONTROL_ONLY_DEVICE)
					UEINTX &= ~((1 << TXINI) | (1 << FIFOCON));
    10b2:	80 91 e8 00 	lds	r24, 0x00E8
    10b6:	8e 77       	andi	r24, 0x7E	; 126
    10b8:	80 93 e8 00 	sts	0x00E8, r24

	bool BankFull = !(Endpoint_IsReadWriteAllowed());

	Endpoint_ClearIN();

	if (BankFull)
    10bc:	95 fd       	sbrc	r25, 5
    10be:	0d c0       	rjmp	.+26     	; 0x10da <CDC_Device_Flush+0x64>
	{
		if ((ErrorCode = Endpoint_WaitUntilReady()) != ENDPOINT_READYWAIT_NoError)
    10c0:	a8 db       	rcall	.-2224   	; 0x812 <Endpoint_WaitUntilReady>
    10c2:	88 23       	and	r24, r24
    10c4:	59 f4       	brne	.+22     	; 0x10dc <CDC_Device_Flush+0x66>
    10c6:	90 91 e8 00 	lds	r25, 0x00E8
    10ca:	9e 77       	andi	r25, 0x7E	; 126
    10cc:	90 93 e8 00 	sts	0x00E8, r25
    10d0:	08 95       	ret
    10d2:	82 e0       	ldi	r24, 0x02	; 2
}

uint8_t CDC_Device_Flush(USB_ClassInfo_CDC_Device_t* const CDCInterfaceInfo)
{
	if ((USB_DeviceState != DEVICE_STATE_Configured) || !(CDCInterfaceInfo->State.LineEncoding.BaudRateBPS))
	  return ENDPOINT_RWSTREAM_DeviceDisconnected;
    10d4:	08 95       	ret
    10d6:	80 e0       	ldi	r24, 0x00	; 0
	uint8_t ErrorCode;

	Endpoint_SelectEndpoint(CDCInterfaceInfo->Config.DataINEndpoint.Address);

	if (!(Endpoint_BytesInEndpoint()))
	  return ENDPOINT_READYWAIT_NoError;
    10d8:	08 95       	ret
    10da:	80 e0       	ldi	r24, 0x00	; 0
		  return ErrorCode;

		Endpoint_ClearIN();
	}

	return ENDPOINT_READYWAIT_NoError;
    10dc:	08 95       	ret

000010de <CDC_Device_USBTask>:
}
    10de:	2e b3       	in	r18, 0x1e	; 30
	return true;
}

void CDC_Device_USBTask(USB_ClassInfo_CDC_Device_t* const CDCInterfaceInfo)
{
	if ((USB_DeviceState != DEVICE_STATE_Configured) || !(CDCInterfaceInfo->State.LineEncoding.BaudRateBPS))
    10e0:	24 30       	cpi	r18, 0x04	; 4
    10e2:	99 f4       	brne	.+38     	; 0x110a <CDC_Device_USBTask+0x2c>
    10e4:	fc 01       	movw	r30, r24
    10e6:	44 89       	ldd	r20, Z+20	; 0x14
    10e8:	55 89       	ldd	r21, Z+21	; 0x15
    10ea:	66 89       	ldd	r22, Z+22	; 0x16
    10ec:	77 89       	ldd	r23, Z+23	; 0x17
    10ee:	41 15       	cp	r20, r1
    10f0:	51 05       	cpc	r21, r1
    10f2:	61 05       	cpc	r22, r1
    10f4:	71 05       	cpc	r23, r1
    10f6:	49 f0       	breq	.+18     	; 0x110a <CDC_Device_USBTask+0x2c>
			 */
			static inline void Endpoint_SelectEndpoint(const uint8_t Address) ATTR_ALWAYS_INLINE;
			static inline void Endpoint_SelectEndpoint(const uint8_t Address)
			{
				#if !defined(CONTROL_ONLY_DEVICE)
					UENUM = (Address & ENDPOINT_EPNUM_MASK);
    10f8:	21 81       	ldd	r18, Z+1	; 0x01
    10fa:	2f 70       	andi	r18, 0x0F	; 15
    10fc:	20 93 e9 00 	sts	0x00E9, r18
			 *  \return Boolean \c true if the current endpoint is ready for an IN packet, \c false otherwise.
			 */
			static inline bool Endpoint_IsINReady(void) ATTR_WARN_UNUSED_RESULT ATTR_ALWAYS_INLINE;
			static inline bool Endpoint_IsINReady(void)
			{
				return ((UEINTX & (1 << TXINI)) ? true : false);
    1100:	20 91 e8 00 	lds	r18, 0x00E8
	  return;

	#if !defined(NO_CLASS_DRIVER_AUTOFLUSH)
	Endpoint_SelectEndpoint(CDCInterfaceInfo->Config.DataINEndpoint.Address);

	if (Endpoint_IsINReady())
    1104:	20 ff       	sbrs	r18, 0
    1106:	01 c0       	rjmp	.+2      	; 0x110a <CDC_Device_USBTask+0x2c>
	  CDC_Device_Flush(CDCInterfaceInfo);
    1108:	b6 cf       	rjmp	.-148    	; 0x1076 <CDC_Device_Flush>
    110a:	08 95       	ret

0000110c <CDC_Device_BytesReceived>:
    110c:	fc 01       	movw	r30, r24
	return ENDPOINT_READYWAIT_NoError;
}

uint16_t CDC_Device_BytesReceived(USB_ClassInfo_CDC_Device_t* const CDCInterfaceInfo)
{
	if ((USB_DeviceState != DEVICE_STATE_Configured) || !(CDCInterfaceInfo->State.LineEncoding.BaudRateBPS))
    110e:	8e b3       	in	r24, 0x1e	; 30
    1110:	84 30       	cpi	r24, 0x04	; 4
    1112:	61 f5       	brne	.+88     	; 0x116c <CDC_Device_BytesReceived+0x60>
    1114:	44 89       	ldd	r20, Z+20	; 0x14
    1116:	55 89       	ldd	r21, Z+21	; 0x15
    1118:	66 89       	ldd	r22, Z+22	; 0x16
    111a:	77 89       	ldd	r23, Z+23	; 0x17
    111c:	41 15       	cp	r20, r1
    111e:	51 05       	cpc	r21, r1
    1120:	61 05       	cpc	r22, r1
    1122:	71 05       	cpc	r23, r1
    1124:	19 f1       	breq	.+70     	; 0x116c <CDC_Device_BytesReceived+0x60>
			 */
			static inline void Endpoint_SelectEndpoint(const uint8_t Address) ATTR_ALWAYS_INLINE;
			static inline void Endpoint_SelectEndpoint(const uint8_t Address)
			{
				#if !defined(CONTROL_ONLY_DEVICE)
					UENUM = (Address & ENDPOINT_EPNUM_MASK);
    1126:	86 81       	ldd	r24, Z+6	; 0x06
    1128:	8f 70       	andi	r24, 0x0F	; 15
    112a:	80 93 e9 00 	sts	0x00E9, r24
			 *  \return Boolean \c true if current endpoint is has received an OUT packet, \c false otherwise.
			 */
			static inline bool Endpoint_IsOUTReceived(void) ATTR_WARN_UNUSED_RESULT ATTR_ALWAYS_INLINE;
			static inline bool Endpoint_IsOUTReceived(void)
			{
				return ((UEINTX & (1 << RXOUTI)) ? true : false);
    112e:	80 91 e8 00 	lds	r24, 0x00E8
	  return 0;

	Endpoint_SelectEndpoint(CDCInterfaceInfo->Config.DataOUTEndpoint.Address);

	if (Endpoint_IsOUTReceived())
    1132:	82 ff       	sbrs	r24, 2
    1134:	1e c0       	rjmp	.+60     	; 0x1172 <CDC_Device_BytesReceived+0x66>
			static inline uint16_t Endpoint_BytesInEndpoint(void)
			{
				#if (defined(USB_SERIES_6_AVR) || defined(USB_SERIES_7_AVR))
					return UEBCX;
				#elif defined(USB_SERIES_4_AVR)
					return (((uint16_t)UEBCHX << 8) | UEBCLX);
    1136:	90 91 f3 00 	lds	r25, 0x00F3
    113a:	80 91 f2 00 	lds	r24, 0x00F2
    113e:	39 2f       	mov	r19, r25
    1140:	20 e0       	ldi	r18, 0x00	; 0
    1142:	90 e0       	ldi	r25, 0x00	; 0
    1144:	82 2b       	or	r24, r18
    1146:	93 2b       	or	r25, r19
	{
		if (!(Endpoint_BytesInEndpoint()))
    1148:	00 97       	sbiw	r24, 0x00	; 0
    114a:	31 f4       	brne	.+12     	; 0x1158 <CDC_Device_BytesReceived+0x4c>
			 */
			static inline void Endpoint_ClearOUT(void) ATTR_ALWAYS_INLINE;
			static inline void Endpoint_ClearOUT(void)
			{
				#if !defined(CONTROL_ONLY_DEVICE)
					UEINTX &= ~((1 << RXOUTI) | (1 << FIFOCON));
    114c:	80 91 e8 00 	lds	r24, 0x00E8
    1150:	8b 77       	andi	r24, 0x7B	; 123
    1152:	80 93 e8 00 	sts	0x00E8, r24
    1156:	0a c0       	rjmp	.+20     	; 0x116c <CDC_Device_BytesReceived+0x60>
			static inline uint16_t Endpoint_BytesInEndpoint(void)
			{
				#if (defined(USB_SERIES_6_AVR) || defined(USB_SERIES_7_AVR))
					return UEBCX;
				#elif defined(USB_SERIES_4_AVR)
					return (((uint16_t)UEBCHX << 8) | UEBCLX);
    1158:	90 91 f3 00 	lds	r25, 0x00F3
    115c:	80 91 f2 00 	lds	r24, 0x00F2
    1160:	39 2f       	mov	r19, r25
    1162:	20 e0       	ldi	r18, 0x00	; 0
    1164:	90 e0       	ldi	r25, 0x00	; 0
    1166:	82 2b       	or	r24, r18
    1168:	93 2b       	or	r25, r19
			Endpoint_ClearOUT();
			return 0;
		}
		else
		{
			return Endpoint_BytesInEndpoint();
    116a:	08 95       	ret
}

uint16_t CDC_Device_BytesReceived(USB_ClassInfo_CDC_Device_t* const CDCInterfaceInfo)
{
	if ((USB_DeviceState != DEVICE_STATE_Configured) || !(CDCInterfaceInfo->State.LineEncoding.BaudRateBPS))
	  return 0;
    116c:	80 e0       	ldi	r24, 0x00	; 0
    116e:	90 e0       	ldi	r25, 0x00	; 0
    1170:	08 95       	ret
			return Endpoint_BytesInEndpoint();
		}
	}
	else
	{
		return 0;
    1172:	80 e0       	ldi	r24, 0x00	; 0
    1174:	90 e0       	ldi	r25, 0x00	; 0
	}
}
    1176:	08 95       	ret

00001178 <CDC_Device_ReceiveByte>:

int16_t CDC_Device_ReceiveByte(USB_ClassInfo_CDC_Device_t* const CDCInterfaceInfo)
{
    1178:	fc 01       	movw	r30, r24
	if ((USB_DeviceState != DEVICE_STATE_Configured) || !(CDCInterfaceInfo->State.LineEncoding.BaudRateBPS))
    117a:	8e b3       	in	r24, 0x1e	; 30
    117c:	84 30       	cpi	r24, 0x04	; 4
    117e:	a1 f5       	brne	.+104    	; 0x11e8 <CDC_Device_ReceiveByte+0x70>
    1180:	44 89       	ldd	r20, Z+20	; 0x14
    1182:	55 89       	ldd	r21, Z+21	; 0x15
    1184:	66 89       	ldd	r22, Z+22	; 0x16
    1186:	77 89       	ldd	r23, Z+23	; 0x17
    1188:	41 15       	cp	r20, r1
    118a:	51 05       	cpc	r21, r1
    118c:	61 05       	cpc	r22, r1
    118e:	71 05       	cpc	r23, r1
    1190:	59 f1       	breq	.+86     	; 0x11e8 <CDC_Device_ReceiveByte+0x70>
			 */
			static inline void Endpoint_SelectEndpoint(const uint8_t Address) ATTR_ALWAYS_INLINE;
			static inline void Endpoint_SelectEndpoint(const uint8_t Address)
			{
				#if !defined(CONTROL_ONLY_DEVICE)
					UENUM = (Address & ENDPOINT_EPNUM_MASK);
    1192:	86 81       	ldd	r24, Z+6	; 0x06
    1194:	8f 70       	andi	r24, 0x0F	; 15
    1196:	80 93 e9 00 	sts	0x00E9, r24
			 *  \return Boolean \c true if current endpoint is has received an OUT packet, \c false otherwise.
			 */
			static inline bool Endpoint_IsOUTReceived(void) ATTR_WARN_UNUSED_RESULT ATTR_ALWAYS_INLINE;
			static inline bool Endpoint_IsOUTReceived(void)
			{
				return ((UEINTX & (1 << RXOUTI)) ? true : false);
    119a:	80 91 e8 00 	lds	r24, 0x00E8

	int16_t ReceivedByte = -1;

	Endpoint_SelectEndpoint(CDCInterfaceInfo->Config.DataOUTEndpoint.Address);

	if (Endpoint_IsOUTReceived())
    119e:	82 ff       	sbrs	r24, 2
    11a0:	26 c0       	rjmp	.+76     	; 0x11ee <CDC_Device_ReceiveByte+0x76>
			static inline uint16_t Endpoint_BytesInEndpoint(void)
			{
				#if (defined(USB_SERIES_6_AVR) || defined(USB_SERIES_7_AVR))
					return UEBCX;
				#elif defined(USB_SERIES_4_AVR)
					return (((uint16_t)UEBCHX << 8) | UEBCLX);
    11a2:	90 91 f3 00 	lds	r25, 0x00F3
    11a6:	80 91 f2 00 	lds	r24, 0x00F2
    11aa:	39 2f       	mov	r19, r25
    11ac:	20 e0       	ldi	r18, 0x00	; 0
    11ae:	90 e0       	ldi	r25, 0x00	; 0
    11b0:	82 2b       	or	r24, r18
    11b2:	93 2b       	or	r25, r19
	{
		if (Endpoint_BytesInEndpoint())
    11b4:	00 97       	sbiw	r24, 0x00	; 0
    11b6:	21 f0       	breq	.+8      	; 0x11c0 <CDC_Device_ReceiveByte+0x48>
			 *  \return Next byte in the currently selected endpoint's FIFO buffer.
			 */
			static inline uint8_t Endpoint_Read_8(void) ATTR_WARN_UNUSED_RESULT ATTR_ALWAYS_INLINE;
			static inline uint8_t Endpoint_Read_8(void)
			{
				return UEDATX;
    11b8:	80 91 f1 00 	lds	r24, 0x00F1
		  ReceivedByte = Endpoint_Read_8();
    11bc:	90 e0       	ldi	r25, 0x00	; 0
    11be:	02 c0       	rjmp	.+4      	; 0x11c4 <CDC_Device_ReceiveByte+0x4c>
int16_t CDC_Device_ReceiveByte(USB_ClassInfo_CDC_Device_t* const CDCInterfaceInfo)
{
	if ((USB_DeviceState != DEVICE_STATE_Configured) || !(CDCInterfaceInfo->State.LineEncoding.BaudRateBPS))
	  return -1;

	int16_t ReceivedByte = -1;
    11c0:	8f ef       	ldi	r24, 0xFF	; 255
    11c2:	9f ef       	ldi	r25, 0xFF	; 255
			static inline uint16_t Endpoint_BytesInEndpoint(void)
			{
				#if (defined(USB_SERIES_6_AVR) || defined(USB_SERIES_7_AVR))
					return UEBCX;
				#elif defined(USB_SERIES_4_AVR)
					return (((uint16_t)UEBCHX << 8) | UEBCLX);
    11c4:	30 91 f3 00 	lds	r19, 0x00F3
    11c8:	20 91 f2 00 	lds	r18, 0x00F2
    11cc:	53 2f       	mov	r21, r19
    11ce:	40 e0       	ldi	r20, 0x00	; 0
    11d0:	30 e0       	ldi	r19, 0x00	; 0
    11d2:	24 2b       	or	r18, r20
    11d4:	35 2b       	or	r19, r21
	if (Endpoint_IsOUTReceived())
	{
		if (Endpoint_BytesInEndpoint())
		  ReceivedByte = Endpoint_Read_8();

		if (!(Endpoint_BytesInEndpoint()))
    11d6:	21 15       	cp	r18, r1
    11d8:	31 05       	cpc	r19, r1
    11da:	59 f4       	brne	.+22     	; 0x11f2 <CDC_Device_ReceiveByte+0x7a>
			 */
			static inline void Endpoint_ClearOUT(void) ATTR_ALWAYS_INLINE;
			static inline void Endpoint_ClearOUT(void)
			{
				#if !defined(CONTROL_ONLY_DEVICE)
					UEINTX &= ~((1 << RXOUTI) | (1 << FIFOCON));
    11dc:	20 91 e8 00 	lds	r18, 0x00E8
    11e0:	2b 77       	andi	r18, 0x7B	; 123
    11e2:	20 93 e8 00 	sts	0x00E8, r18
    11e6:	08 95       	ret
}

int16_t CDC_Device_ReceiveByte(USB_ClassInfo_CDC_Device_t* const CDCInterfaceInfo)
{
	if ((USB_DeviceState != DEVICE_STATE_Configured) || !(CDCInterfaceInfo->State.LineEncoding.BaudRateBPS))
	  return -1;
    11e8:	8f ef       	ldi	r24, 0xFF	; 255
    11ea:	9f ef       	ldi	r25, 0xFF	; 255
    11ec:	08 95       	ret

	int16_t ReceivedByte = -1;
    11ee:	8f ef       	ldi	r24, 0xFF	; 255
    11f0:	9f ef       	ldi	r25, 0xFF	; 255
		if (!(Endpoint_BytesInEndpoint()))
		  Endpoint_ClearOUT();
	}

	return ReceivedByte;
}
    11f2:	08 95       	ret

000011f4 <CDC_Device_getchar>:
	return CDC_Device_SendByte((USB_ClassInfo_CDC_Device_t*)fdev_get_udata(Stream), c) ? _FDEV_ERR : 0;
}

static int CDC_Device_getchar(FILE* Stream)
{
	int16_t ReceivedByte = CDC_Device_ReceiveByte((USB_ClassInfo_CDC_Device_t*)fdev_get_udata(Stream));
    11f4:	fc 01       	movw	r30, r24
    11f6:	84 85       	ldd	r24, Z+12	; 0x0c
    11f8:	95 85       	ldd	r25, Z+13	; 0x0d
    11fa:	be df       	rcall	.-132    	; 0x1178 <CDC_Device_ReceiveByte>
    11fc:	97 ff       	sbrs	r25, 7

	if (ReceivedByte < 0)
    11fe:	02 c0       	rjmp	.+4      	; 0x1204 <CDC_Device_getchar+0x10>
    1200:	8e ef       	ldi	r24, 0xFE	; 254
	  return _FDEV_EOF;
    1202:	9f ef       	ldi	r25, 0xFF	; 255
    1204:	08 95       	ret

00001206 <CDC_Device_CreateStream>:

	return ReceivedByte;
}
    1206:	fb 01       	movw	r30, r22

#if defined(FDEV_SETUP_STREAM)
void CDC_Device_CreateStream(USB_ClassInfo_CDC_Device_t* const CDCInterfaceInfo,
                             FILE* const Stream)
{
	*Stream = (FILE)FDEV_SETUP_STREAM(CDC_Device_putchar, CDC_Device_getchar, _FDEV_SETUP_RW);
    1208:	2e e0       	ldi	r18, 0x0E	; 14
    120a:	db 01       	movw	r26, r22
    120c:	1d 92       	st	X+, r1
    120e:	2a 95       	dec	r18
    1210:	e9 f7       	brne	.-6      	; 0x120c <CDC_Device_CreateStream+0x6>
    1212:	23 e0       	ldi	r18, 0x03	; 3
    1214:	23 83       	std	Z+3, r18	; 0x03
    1216:	2d e2       	ldi	r18, 0x2D	; 45
    1218:	38 e0       	ldi	r19, 0x08	; 8
    121a:	31 87       	std	Z+9, r19	; 0x09
    121c:	20 87       	std	Z+8, r18	; 0x08
    121e:	2a ef       	ldi	r18, 0xFA	; 250
    1220:	38 e0       	ldi	r19, 0x08	; 8
    1222:	33 87       	std	Z+11, r19	; 0x0b
    1224:	22 87       	std	Z+10, r18	; 0x0a
	fdev_set_udata(Stream, CDCInterfaceInfo);
    1226:	95 87       	std	Z+13, r25	; 0x0d
    1228:	84 87       	std	Z+12, r24	; 0x0c
}
    122a:	08 95       	ret

0000122c <CDC_Device_Event_Stub>:
#endif

void CDC_Device_Event_Stub(void)
{

}
    122c:	08 95       	ret

0000122e <__udivmodsi4>:
    122e:	a1 e2       	ldi	r26, 0x21	; 33
    1230:	1a 2e       	mov	r1, r26
    1232:	aa 1b       	sub	r26, r26
    1234:	bb 1b       	sub	r27, r27
    1236:	fd 01       	movw	r30, r26
    1238:	0d c0       	rjmp	.+26     	; 0x1254 <__udivmodsi4_ep>

0000123a <__udivmodsi4_loop>:
    123a:	aa 1f       	adc	r26, r26
    123c:	bb 1f       	adc	r27, r27
    123e:	ee 1f       	adc	r30, r30
    1240:	ff 1f       	adc	r31, r31
    1242:	a2 17       	cp	r26, r18
    1244:	b3 07       	cpc	r27, r19
    1246:	e4 07       	cpc	r30, r20
    1248:	f5 07       	cpc	r31, r21
    124a:	20 f0       	brcs	.+8      	; 0x1254 <__udivmodsi4_ep>
    124c:	a2 1b       	sub	r26, r18
    124e:	b3 0b       	sbc	r27, r19
    1250:	e4 0b       	sbc	r30, r20
    1252:	f5 0b       	sbc	r31, r21

00001254 <__udivmodsi4_ep>:
    1254:	66 1f       	adc	r22, r22
    1256:	77 1f       	adc	r23, r23
    1258:	88 1f       	adc	r24, r24
    125a:	99 1f       	adc	r25, r25
    125c:	1a 94       	dec	r1
    125e:	69 f7       	brne	.-38     	; 0x123a <__udivmodsi4_loop>
    1260:	60 95       	com	r22
    1262:	70 95       	com	r23
    1264:	80 95       	com	r24
    1266:	90 95       	com	r25
    1268:	9b 01       	movw	r18, r22
    126a:	ac 01       	movw	r20, r24
    126c:	bd 01       	movw	r22, r26
    126e:	cf 01       	movw	r24, r30
    1270:	08 95       	ret

00001272 <strncmp>:
    1272:	fb 01       	movw	r30, r22
    1274:	dc 01       	movw	r26, r24
    1276:	41 50       	subi	r20, 0x01	; 1
    1278:	50 40       	sbci	r21, 0x00	; 0
    127a:	30 f0       	brcs	.+12     	; 0x1288 <strncmp+0x16>
    127c:	8d 91       	ld	r24, X+
    127e:	01 90       	ld	r0, Z+
    1280:	80 19       	sub	r24, r0
    1282:	19 f4       	brne	.+6      	; 0x128a <strncmp+0x18>
    1284:	00 20       	and	r0, r0
    1286:	b9 f7       	brne	.-18     	; 0x1276 <strncmp+0x4>
    1288:	88 1b       	sub	r24, r24
    128a:	99 0b       	sbc	r25, r25
    128c:	08 95       	ret

0000128e <strncpy>:
    128e:	fb 01       	movw	r30, r22
    1290:	dc 01       	movw	r26, r24
    1292:	41 50       	subi	r20, 0x01	; 1
    1294:	50 40       	sbci	r21, 0x00	; 0
    1296:	48 f0       	brcs	.+18     	; 0x12aa <strncpy+0x1c>
    1298:	01 90       	ld	r0, Z+
    129a:	0d 92       	st	X+, r0
    129c:	00 20       	and	r0, r0
    129e:	c9 f7       	brne	.-14     	; 0x1292 <strncpy+0x4>
    12a0:	01 c0       	rjmp	.+2      	; 0x12a4 <strncpy+0x16>
    12a2:	1d 92       	st	X+, r1
    12a4:	41 50       	subi	r20, 0x01	; 1
    12a6:	50 40       	sbci	r21, 0x00	; 0
    12a8:	e0 f7       	brcc	.-8      	; 0x12a2 <strncpy+0x14>
    12aa:	08 95       	ret

000012ac <fprintf>:
    12ac:	a0 e0       	ldi	r26, 0x00	; 0
    12ae:	b0 e0       	ldi	r27, 0x00	; 0
    12b0:	eb e5       	ldi	r30, 0x5B	; 91
    12b2:	f9 e0       	ldi	r31, 0x09	; 9
    12b4:	ad c2       	rjmp	.+1370   	; 0x1810 <__prologue_saves__+0x20>
    12b6:	ae 01       	movw	r20, r28
    12b8:	47 5f       	subi	r20, 0xF7	; 247
    12ba:	5f 4f       	sbci	r21, 0xFF	; 255
    12bc:	8d 81       	ldd	r24, Y+5	; 0x05
    12be:	9e 81       	ldd	r25, Y+6	; 0x06
    12c0:	6f 81       	ldd	r22, Y+7	; 0x07
    12c2:	78 85       	ldd	r23, Y+8	; 0x08
    12c4:	26 d0       	rcall	.+76     	; 0x1312 <vfprintf>
    12c6:	20 96       	adiw	r28, 0x00	; 0
    12c8:	e2 e0       	ldi	r30, 0x02	; 2
    12ca:	be c2       	rjmp	.+1404   	; 0x1848 <__epilogue_restores__+0x20>

000012cc <fputs>:
    12cc:	ef 92       	push	r14
    12ce:	ff 92       	push	r15
    12d0:	0f 93       	push	r16
    12d2:	1f 93       	push	r17
    12d4:	cf 93       	push	r28
    12d6:	df 93       	push	r29
    12d8:	7c 01       	movw	r14, r24
    12da:	eb 01       	movw	r28, r22
    12dc:	8b 81       	ldd	r24, Y+3	; 0x03
    12de:	81 ff       	sbrs	r24, 1
    12e0:	11 c0       	rjmp	.+34     	; 0x1304 <fputs+0x38>
    12e2:	00 e0       	ldi	r16, 0x00	; 0
    12e4:	10 e0       	ldi	r17, 0x00	; 0
    12e6:	08 c0       	rjmp	.+16     	; 0x12f8 <fputs+0x2c>
    12e8:	e8 85       	ldd	r30, Y+8	; 0x08
    12ea:	f9 85       	ldd	r31, Y+9	; 0x09
    12ec:	be 01       	movw	r22, r28
    12ee:	09 95       	icall
    12f0:	00 97       	sbiw	r24, 0x00	; 0
    12f2:	11 f0       	breq	.+4      	; 0x12f8 <fputs+0x2c>
    12f4:	0f ef       	ldi	r16, 0xFF	; 255
    12f6:	1f ef       	ldi	r17, 0xFF	; 255
    12f8:	f7 01       	movw	r30, r14
    12fa:	81 91       	ld	r24, Z+
    12fc:	7f 01       	movw	r14, r30
    12fe:	88 23       	and	r24, r24
    1300:	99 f7       	brne	.-26     	; 0x12e8 <fputs+0x1c>
    1302:	02 c0       	rjmp	.+4      	; 0x1308 <fputs+0x3c>
    1304:	0f ef       	ldi	r16, 0xFF	; 255
    1306:	1f ef       	ldi	r17, 0xFF	; 255
    1308:	c8 01       	movw	r24, r16
    130a:	cd b7       	in	r28, 0x3d	; 61
    130c:	de b7       	in	r29, 0x3e	; 62
    130e:	e6 e0       	ldi	r30, 0x06	; 6
    1310:	97 c2       	rjmp	.+1326   	; 0x1840 <__epilogue_restores__+0x18>

00001312 <vfprintf>:
    1312:	ad e0       	ldi	r26, 0x0D	; 13
    1314:	b0 e0       	ldi	r27, 0x00	; 0
    1316:	ee e8       	ldi	r30, 0x8E	; 142
    1318:	f9 e0       	ldi	r31, 0x09	; 9
    131a:	6a c2       	rjmp	.+1236   	; 0x17f0 <__prologue_saves__>
    131c:	3c 01       	movw	r6, r24
    131e:	7d 87       	std	Y+13, r23	; 0x0d
    1320:	6c 87       	std	Y+12, r22	; 0x0c
    1322:	5a 01       	movw	r10, r20
    1324:	fc 01       	movw	r30, r24
    1326:	17 82       	std	Z+7, r1	; 0x07
    1328:	16 82       	std	Z+6, r1	; 0x06
    132a:	83 81       	ldd	r24, Z+3	; 0x03
    132c:	81 ff       	sbrs	r24, 1
    132e:	bb c1       	rjmp	.+886    	; 0x16a6 <vfprintf+0x394>
    1330:	2e 01       	movw	r4, r28
    1332:	08 94       	sec
    1334:	41 1c       	adc	r4, r1
    1336:	51 1c       	adc	r5, r1
    1338:	f3 01       	movw	r30, r6
    133a:	93 81       	ldd	r25, Z+3	; 0x03
    133c:	ec 85       	ldd	r30, Y+12	; 0x0c
    133e:	fd 85       	ldd	r31, Y+13	; 0x0d
    1340:	93 fd       	sbrc	r25, 3
    1342:	85 91       	lpm	r24, Z+
    1344:	93 ff       	sbrs	r25, 3
    1346:	81 91       	ld	r24, Z+
    1348:	fd 87       	std	Y+13, r31	; 0x0d
    134a:	ec 87       	std	Y+12, r30	; 0x0c
    134c:	88 23       	and	r24, r24
    134e:	09 f4       	brne	.+2      	; 0x1352 <vfprintf+0x40>
    1350:	a6 c1       	rjmp	.+844    	; 0x169e <vfprintf+0x38c>
    1352:	85 32       	cpi	r24, 0x25	; 37
    1354:	41 f4       	brne	.+16     	; 0x1366 <vfprintf+0x54>
    1356:	93 fd       	sbrc	r25, 3
    1358:	85 91       	lpm	r24, Z+
    135a:	93 ff       	sbrs	r25, 3
    135c:	81 91       	ld	r24, Z+
    135e:	fd 87       	std	Y+13, r31	; 0x0d
    1360:	ec 87       	std	Y+12, r30	; 0x0c
    1362:	85 32       	cpi	r24, 0x25	; 37
    1364:	21 f4       	brne	.+8      	; 0x136e <vfprintf+0x5c>
    1366:	90 e0       	ldi	r25, 0x00	; 0
    1368:	b3 01       	movw	r22, r6
    136a:	b8 d1       	rcall	.+880    	; 0x16dc <fputc>
    136c:	e5 cf       	rjmp	.-54     	; 0x1338 <vfprintf+0x26>
    136e:	ff 24       	eor	r15, r15
    1370:	ee 24       	eor	r14, r14
    1372:	10 e0       	ldi	r17, 0x00	; 0
    1374:	10 32       	cpi	r17, 0x20	; 32
    1376:	b0 f4       	brcc	.+44     	; 0x13a4 <vfprintf+0x92>
    1378:	8b 32       	cpi	r24, 0x2B	; 43
    137a:	69 f0       	breq	.+26     	; 0x1396 <vfprintf+0x84>
    137c:	8c 32       	cpi	r24, 0x2C	; 44
    137e:	28 f4       	brcc	.+10     	; 0x138a <vfprintf+0x78>
    1380:	80 32       	cpi	r24, 0x20	; 32
    1382:	51 f0       	breq	.+20     	; 0x1398 <vfprintf+0x86>
    1384:	83 32       	cpi	r24, 0x23	; 35
    1386:	71 f4       	brne	.+28     	; 0x13a4 <vfprintf+0x92>
    1388:	0b c0       	rjmp	.+22     	; 0x13a0 <vfprintf+0x8e>
    138a:	8d 32       	cpi	r24, 0x2D	; 45
    138c:	39 f0       	breq	.+14     	; 0x139c <vfprintf+0x8a>
    138e:	80 33       	cpi	r24, 0x30	; 48
    1390:	49 f4       	brne	.+18     	; 0x13a4 <vfprintf+0x92>
    1392:	11 60       	ori	r17, 0x01	; 1
    1394:	2c c0       	rjmp	.+88     	; 0x13ee <vfprintf+0xdc>
    1396:	12 60       	ori	r17, 0x02	; 2
    1398:	14 60       	ori	r17, 0x04	; 4
    139a:	29 c0       	rjmp	.+82     	; 0x13ee <vfprintf+0xdc>
    139c:	18 60       	ori	r17, 0x08	; 8
    139e:	27 c0       	rjmp	.+78     	; 0x13ee <vfprintf+0xdc>
    13a0:	10 61       	ori	r17, 0x10	; 16
    13a2:	25 c0       	rjmp	.+74     	; 0x13ee <vfprintf+0xdc>
    13a4:	17 fd       	sbrc	r17, 7
    13a6:	2e c0       	rjmp	.+92     	; 0x1404 <vfprintf+0xf2>
    13a8:	28 2f       	mov	r18, r24
    13aa:	20 53       	subi	r18, 0x30	; 48
    13ac:	2a 30       	cpi	r18, 0x0A	; 10
    13ae:	98 f4       	brcc	.+38     	; 0x13d6 <vfprintf+0xc4>
    13b0:	16 ff       	sbrs	r17, 6
    13b2:	08 c0       	rjmp	.+16     	; 0x13c4 <vfprintf+0xb2>
    13b4:	8f 2d       	mov	r24, r15
    13b6:	88 0f       	add	r24, r24
    13b8:	f8 2e       	mov	r15, r24
    13ba:	ff 0c       	add	r15, r15
    13bc:	ff 0c       	add	r15, r15
    13be:	f8 0e       	add	r15, r24
    13c0:	f2 0e       	add	r15, r18
    13c2:	15 c0       	rjmp	.+42     	; 0x13ee <vfprintf+0xdc>
    13c4:	8e 2d       	mov	r24, r14
    13c6:	88 0f       	add	r24, r24
    13c8:	e8 2e       	mov	r14, r24
    13ca:	ee 0c       	add	r14, r14
    13cc:	ee 0c       	add	r14, r14
    13ce:	e8 0e       	add	r14, r24
    13d0:	e2 0e       	add	r14, r18
    13d2:	10 62       	ori	r17, 0x20	; 32
    13d4:	0c c0       	rjmp	.+24     	; 0x13ee <vfprintf+0xdc>
    13d6:	8e 32       	cpi	r24, 0x2E	; 46
    13d8:	21 f4       	brne	.+8      	; 0x13e2 <vfprintf+0xd0>
    13da:	16 fd       	sbrc	r17, 6
    13dc:	60 c1       	rjmp	.+704    	; 0x169e <vfprintf+0x38c>
    13de:	10 64       	ori	r17, 0x40	; 64
    13e0:	06 c0       	rjmp	.+12     	; 0x13ee <vfprintf+0xdc>
    13e2:	8c 36       	cpi	r24, 0x6C	; 108
    13e4:	11 f4       	brne	.+4      	; 0x13ea <vfprintf+0xd8>
    13e6:	10 68       	ori	r17, 0x80	; 128
    13e8:	02 c0       	rjmp	.+4      	; 0x13ee <vfprintf+0xdc>
    13ea:	88 36       	cpi	r24, 0x68	; 104
    13ec:	59 f4       	brne	.+22     	; 0x1404 <vfprintf+0xf2>
    13ee:	ec 85       	ldd	r30, Y+12	; 0x0c
    13f0:	fd 85       	ldd	r31, Y+13	; 0x0d
    13f2:	93 fd       	sbrc	r25, 3
    13f4:	85 91       	lpm	r24, Z+
    13f6:	93 ff       	sbrs	r25, 3
    13f8:	81 91       	ld	r24, Z+
    13fa:	fd 87       	std	Y+13, r31	; 0x0d
    13fc:	ec 87       	std	Y+12, r30	; 0x0c
    13fe:	88 23       	and	r24, r24
    1400:	09 f0       	breq	.+2      	; 0x1404 <vfprintf+0xf2>
    1402:	b8 cf       	rjmp	.-144    	; 0x1374 <vfprintf+0x62>
    1404:	98 2f       	mov	r25, r24
    1406:	95 54       	subi	r25, 0x45	; 69
    1408:	93 30       	cpi	r25, 0x03	; 3
    140a:	18 f0       	brcs	.+6      	; 0x1412 <vfprintf+0x100>
    140c:	90 52       	subi	r25, 0x20	; 32
    140e:	93 30       	cpi	r25, 0x03	; 3
    1410:	38 f4       	brcc	.+14     	; 0x1420 <vfprintf+0x10e>
    1412:	24 e0       	ldi	r18, 0x04	; 4
    1414:	30 e0       	ldi	r19, 0x00	; 0
    1416:	a2 0e       	add	r10, r18
    1418:	b3 1e       	adc	r11, r19
    141a:	3f e3       	ldi	r19, 0x3F	; 63
    141c:	39 83       	std	Y+1, r19	; 0x01
    141e:	0f c0       	rjmp	.+30     	; 0x143e <vfprintf+0x12c>
    1420:	83 36       	cpi	r24, 0x63	; 99
    1422:	31 f0       	breq	.+12     	; 0x1430 <vfprintf+0x11e>
    1424:	83 37       	cpi	r24, 0x73	; 115
    1426:	81 f0       	breq	.+32     	; 0x1448 <vfprintf+0x136>
    1428:	83 35       	cpi	r24, 0x53	; 83
    142a:	09 f0       	breq	.+2      	; 0x142e <vfprintf+0x11c>
    142c:	56 c0       	rjmp	.+172    	; 0x14da <vfprintf+0x1c8>
    142e:	21 c0       	rjmp	.+66     	; 0x1472 <vfprintf+0x160>
    1430:	f5 01       	movw	r30, r10
    1432:	80 81       	ld	r24, Z
    1434:	89 83       	std	Y+1, r24	; 0x01
    1436:	22 e0       	ldi	r18, 0x02	; 2
    1438:	30 e0       	ldi	r19, 0x00	; 0
    143a:	a2 0e       	add	r10, r18
    143c:	b3 1e       	adc	r11, r19
    143e:	21 e0       	ldi	r18, 0x01	; 1
    1440:	c2 2e       	mov	r12, r18
    1442:	d1 2c       	mov	r13, r1
    1444:	42 01       	movw	r8, r4
    1446:	13 c0       	rjmp	.+38     	; 0x146e <vfprintf+0x15c>
    1448:	92 e0       	ldi	r25, 0x02	; 2
    144a:	29 2e       	mov	r2, r25
    144c:	31 2c       	mov	r3, r1
    144e:	2a 0c       	add	r2, r10
    1450:	3b 1c       	adc	r3, r11
    1452:	f5 01       	movw	r30, r10
    1454:	80 80       	ld	r8, Z
    1456:	91 80       	ldd	r9, Z+1	; 0x01
    1458:	16 ff       	sbrs	r17, 6
    145a:	03 c0       	rjmp	.+6      	; 0x1462 <vfprintf+0x150>
    145c:	6f 2d       	mov	r22, r15
    145e:	70 e0       	ldi	r23, 0x00	; 0
    1460:	02 c0       	rjmp	.+4      	; 0x1466 <vfprintf+0x154>
    1462:	6f ef       	ldi	r22, 0xFF	; 255
    1464:	7f ef       	ldi	r23, 0xFF	; 255
    1466:	c4 01       	movw	r24, r8
    1468:	2e d1       	rcall	.+604    	; 0x16c6 <strnlen>
    146a:	6c 01       	movw	r12, r24
    146c:	51 01       	movw	r10, r2
    146e:	1f 77       	andi	r17, 0x7F	; 127
    1470:	14 c0       	rjmp	.+40     	; 0x149a <vfprintf+0x188>
    1472:	82 e0       	ldi	r24, 0x02	; 2
    1474:	28 2e       	mov	r2, r24
    1476:	31 2c       	mov	r3, r1
    1478:	2a 0c       	add	r2, r10
    147a:	3b 1c       	adc	r3, r11
    147c:	f5 01       	movw	r30, r10
    147e:	80 80       	ld	r8, Z
    1480:	91 80       	ldd	r9, Z+1	; 0x01
    1482:	16 ff       	sbrs	r17, 6
    1484:	03 c0       	rjmp	.+6      	; 0x148c <vfprintf+0x17a>
    1486:	6f 2d       	mov	r22, r15
    1488:	70 e0       	ldi	r23, 0x00	; 0
    148a:	02 c0       	rjmp	.+4      	; 0x1490 <vfprintf+0x17e>
    148c:	6f ef       	ldi	r22, 0xFF	; 255
    148e:	7f ef       	ldi	r23, 0xFF	; 255
    1490:	c4 01       	movw	r24, r8
    1492:	0e d1       	rcall	.+540    	; 0x16b0 <strnlen_P>
    1494:	6c 01       	movw	r12, r24
    1496:	10 68       	ori	r17, 0x80	; 128
    1498:	51 01       	movw	r10, r2
    149a:	13 fd       	sbrc	r17, 3
    149c:	1a c0       	rjmp	.+52     	; 0x14d2 <vfprintf+0x1c0>
    149e:	05 c0       	rjmp	.+10     	; 0x14aa <vfprintf+0x198>
    14a0:	80 e2       	ldi	r24, 0x20	; 32
    14a2:	90 e0       	ldi	r25, 0x00	; 0
    14a4:	b3 01       	movw	r22, r6
    14a6:	1a d1       	rcall	.+564    	; 0x16dc <fputc>
    14a8:	ea 94       	dec	r14
    14aa:	8e 2d       	mov	r24, r14
    14ac:	90 e0       	ldi	r25, 0x00	; 0
    14ae:	c8 16       	cp	r12, r24
    14b0:	d9 06       	cpc	r13, r25
    14b2:	b0 f3       	brcs	.-20     	; 0x14a0 <vfprintf+0x18e>
    14b4:	0e c0       	rjmp	.+28     	; 0x14d2 <vfprintf+0x1c0>
    14b6:	f4 01       	movw	r30, r8
    14b8:	17 fd       	sbrc	r17, 7
    14ba:	85 91       	lpm	r24, Z+
    14bc:	17 ff       	sbrs	r17, 7
    14be:	81 91       	ld	r24, Z+
    14c0:	4f 01       	movw	r8, r30
    14c2:	90 e0       	ldi	r25, 0x00	; 0
    14c4:	b3 01       	movw	r22, r6
    14c6:	0a d1       	rcall	.+532    	; 0x16dc <fputc>
    14c8:	e1 10       	cpse	r14, r1
    14ca:	ea 94       	dec	r14
    14cc:	08 94       	sec
    14ce:	c1 08       	sbc	r12, r1
    14d0:	d1 08       	sbc	r13, r1
    14d2:	c1 14       	cp	r12, r1
    14d4:	d1 04       	cpc	r13, r1
    14d6:	79 f7       	brne	.-34     	; 0x14b6 <vfprintf+0x1a4>
    14d8:	df c0       	rjmp	.+446    	; 0x1698 <vfprintf+0x386>
    14da:	84 36       	cpi	r24, 0x64	; 100
    14dc:	11 f0       	breq	.+4      	; 0x14e2 <vfprintf+0x1d0>
    14de:	89 36       	cpi	r24, 0x69	; 105
    14e0:	49 f5       	brne	.+82     	; 0x1534 <vfprintf+0x222>
    14e2:	f5 01       	movw	r30, r10
    14e4:	17 ff       	sbrs	r17, 7
    14e6:	07 c0       	rjmp	.+14     	; 0x14f6 <vfprintf+0x1e4>
    14e8:	80 81       	ld	r24, Z
    14ea:	91 81       	ldd	r25, Z+1	; 0x01
    14ec:	a2 81       	ldd	r26, Z+2	; 0x02
    14ee:	b3 81       	ldd	r27, Z+3	; 0x03
    14f0:	24 e0       	ldi	r18, 0x04	; 4
    14f2:	30 e0       	ldi	r19, 0x00	; 0
    14f4:	08 c0       	rjmp	.+16     	; 0x1506 <vfprintf+0x1f4>
    14f6:	80 81       	ld	r24, Z
    14f8:	91 81       	ldd	r25, Z+1	; 0x01
    14fa:	aa 27       	eor	r26, r26
    14fc:	97 fd       	sbrc	r25, 7
    14fe:	a0 95       	com	r26
    1500:	ba 2f       	mov	r27, r26
    1502:	22 e0       	ldi	r18, 0x02	; 2
    1504:	30 e0       	ldi	r19, 0x00	; 0
    1506:	a2 0e       	add	r10, r18
    1508:	b3 1e       	adc	r11, r19
    150a:	01 2f       	mov	r16, r17
    150c:	0f 76       	andi	r16, 0x6F	; 111
    150e:	b7 ff       	sbrs	r27, 7
    1510:	08 c0       	rjmp	.+16     	; 0x1522 <vfprintf+0x210>
    1512:	b0 95       	com	r27
    1514:	a0 95       	com	r26
    1516:	90 95       	com	r25
    1518:	81 95       	neg	r24
    151a:	9f 4f       	sbci	r25, 0xFF	; 255
    151c:	af 4f       	sbci	r26, 0xFF	; 255
    151e:	bf 4f       	sbci	r27, 0xFF	; 255
    1520:	00 68       	ori	r16, 0x80	; 128
    1522:	bc 01       	movw	r22, r24
    1524:	cd 01       	movw	r24, r26
    1526:	a2 01       	movw	r20, r4
    1528:	2a e0       	ldi	r18, 0x0A	; 10
    152a:	30 e0       	ldi	r19, 0x00	; 0
    152c:	03 d1       	rcall	.+518    	; 0x1734 <__ultoa_invert>
    152e:	d8 2e       	mov	r13, r24
    1530:	d4 18       	sub	r13, r4
    1532:	3e c0       	rjmp	.+124    	; 0x15b0 <vfprintf+0x29e>
    1534:	85 37       	cpi	r24, 0x75	; 117
    1536:	21 f4       	brne	.+8      	; 0x1540 <vfprintf+0x22e>
    1538:	1f 7e       	andi	r17, 0xEF	; 239
    153a:	2a e0       	ldi	r18, 0x0A	; 10
    153c:	30 e0       	ldi	r19, 0x00	; 0
    153e:	20 c0       	rjmp	.+64     	; 0x1580 <vfprintf+0x26e>
    1540:	19 7f       	andi	r17, 0xF9	; 249
    1542:	8f 36       	cpi	r24, 0x6F	; 111
    1544:	a9 f0       	breq	.+42     	; 0x1570 <vfprintf+0x25e>
    1546:	80 37       	cpi	r24, 0x70	; 112
    1548:	20 f4       	brcc	.+8      	; 0x1552 <vfprintf+0x240>
    154a:	88 35       	cpi	r24, 0x58	; 88
    154c:	09 f0       	breq	.+2      	; 0x1550 <vfprintf+0x23e>
    154e:	a7 c0       	rjmp	.+334    	; 0x169e <vfprintf+0x38c>
    1550:	0b c0       	rjmp	.+22     	; 0x1568 <vfprintf+0x256>
    1552:	80 37       	cpi	r24, 0x70	; 112
    1554:	21 f0       	breq	.+8      	; 0x155e <vfprintf+0x24c>
    1556:	88 37       	cpi	r24, 0x78	; 120
    1558:	09 f0       	breq	.+2      	; 0x155c <vfprintf+0x24a>
    155a:	a1 c0       	rjmp	.+322    	; 0x169e <vfprintf+0x38c>
    155c:	01 c0       	rjmp	.+2      	; 0x1560 <vfprintf+0x24e>
    155e:	10 61       	ori	r17, 0x10	; 16
    1560:	14 ff       	sbrs	r17, 4
    1562:	09 c0       	rjmp	.+18     	; 0x1576 <vfprintf+0x264>
    1564:	14 60       	ori	r17, 0x04	; 4
    1566:	07 c0       	rjmp	.+14     	; 0x1576 <vfprintf+0x264>
    1568:	14 ff       	sbrs	r17, 4
    156a:	08 c0       	rjmp	.+16     	; 0x157c <vfprintf+0x26a>
    156c:	16 60       	ori	r17, 0x06	; 6
    156e:	06 c0       	rjmp	.+12     	; 0x157c <vfprintf+0x26a>
    1570:	28 e0       	ldi	r18, 0x08	; 8
    1572:	30 e0       	ldi	r19, 0x00	; 0
    1574:	05 c0       	rjmp	.+10     	; 0x1580 <vfprintf+0x26e>
    1576:	20 e1       	ldi	r18, 0x10	; 16
    1578:	30 e0       	ldi	r19, 0x00	; 0
    157a:	02 c0       	rjmp	.+4      	; 0x1580 <vfprintf+0x26e>
    157c:	20 e1       	ldi	r18, 0x10	; 16
    157e:	32 e0       	ldi	r19, 0x02	; 2
    1580:	f5 01       	movw	r30, r10
    1582:	17 ff       	sbrs	r17, 7
    1584:	07 c0       	rjmp	.+14     	; 0x1594 <vfprintf+0x282>
    1586:	60 81       	ld	r22, Z
    1588:	71 81       	ldd	r23, Z+1	; 0x01
    158a:	82 81       	ldd	r24, Z+2	; 0x02
    158c:	93 81       	ldd	r25, Z+3	; 0x03
    158e:	44 e0       	ldi	r20, 0x04	; 4
    1590:	50 e0       	ldi	r21, 0x00	; 0
    1592:	06 c0       	rjmp	.+12     	; 0x15a0 <vfprintf+0x28e>
    1594:	60 81       	ld	r22, Z
    1596:	71 81       	ldd	r23, Z+1	; 0x01
    1598:	80 e0       	ldi	r24, 0x00	; 0
    159a:	90 e0       	ldi	r25, 0x00	; 0
    159c:	42 e0       	ldi	r20, 0x02	; 2
    159e:	50 e0       	ldi	r21, 0x00	; 0
    15a0:	a4 0e       	add	r10, r20
    15a2:	b5 1e       	adc	r11, r21
    15a4:	a2 01       	movw	r20, r4
    15a6:	c6 d0       	rcall	.+396    	; 0x1734 <__ultoa_invert>
    15a8:	d8 2e       	mov	r13, r24
    15aa:	d4 18       	sub	r13, r4
    15ac:	01 2f       	mov	r16, r17
    15ae:	0f 77       	andi	r16, 0x7F	; 127
    15b0:	06 ff       	sbrs	r16, 6
    15b2:	09 c0       	rjmp	.+18     	; 0x15c6 <vfprintf+0x2b4>
    15b4:	0e 7f       	andi	r16, 0xFE	; 254
    15b6:	df 14       	cp	r13, r15
    15b8:	30 f4       	brcc	.+12     	; 0x15c6 <vfprintf+0x2b4>
    15ba:	04 ff       	sbrs	r16, 4
    15bc:	06 c0       	rjmp	.+12     	; 0x15ca <vfprintf+0x2b8>
    15be:	02 fd       	sbrc	r16, 2
    15c0:	04 c0       	rjmp	.+8      	; 0x15ca <vfprintf+0x2b8>
    15c2:	0f 7e       	andi	r16, 0xEF	; 239
    15c4:	02 c0       	rjmp	.+4      	; 0x15ca <vfprintf+0x2b8>
    15c6:	1d 2d       	mov	r17, r13
    15c8:	01 c0       	rjmp	.+2      	; 0x15cc <vfprintf+0x2ba>
    15ca:	1f 2d       	mov	r17, r15
    15cc:	80 2f       	mov	r24, r16
    15ce:	90 e0       	ldi	r25, 0x00	; 0
    15d0:	04 ff       	sbrs	r16, 4
    15d2:	0c c0       	rjmp	.+24     	; 0x15ec <vfprintf+0x2da>
    15d4:	fe 01       	movw	r30, r28
    15d6:	ed 0d       	add	r30, r13
    15d8:	f1 1d       	adc	r31, r1
    15da:	20 81       	ld	r18, Z
    15dc:	20 33       	cpi	r18, 0x30	; 48
    15de:	11 f4       	brne	.+4      	; 0x15e4 <vfprintf+0x2d2>
    15e0:	09 7e       	andi	r16, 0xE9	; 233
    15e2:	09 c0       	rjmp	.+18     	; 0x15f6 <vfprintf+0x2e4>
    15e4:	02 ff       	sbrs	r16, 2
    15e6:	06 c0       	rjmp	.+12     	; 0x15f4 <vfprintf+0x2e2>
    15e8:	1e 5f       	subi	r17, 0xFE	; 254
    15ea:	05 c0       	rjmp	.+10     	; 0x15f6 <vfprintf+0x2e4>
    15ec:	86 78       	andi	r24, 0x86	; 134
    15ee:	90 70       	andi	r25, 0x00	; 0
    15f0:	00 97       	sbiw	r24, 0x00	; 0
    15f2:	09 f0       	breq	.+2      	; 0x15f6 <vfprintf+0x2e4>
    15f4:	1f 5f       	subi	r17, 0xFF	; 255
    15f6:	80 2e       	mov	r8, r16
    15f8:	99 24       	eor	r9, r9
    15fa:	03 fd       	sbrc	r16, 3
    15fc:	11 c0       	rjmp	.+34     	; 0x1620 <vfprintf+0x30e>
    15fe:	00 ff       	sbrs	r16, 0
    1600:	0c c0       	rjmp	.+24     	; 0x161a <vfprintf+0x308>
    1602:	fd 2c       	mov	r15, r13
    1604:	1e 15       	cp	r17, r14
    1606:	48 f4       	brcc	.+18     	; 0x161a <vfprintf+0x308>
    1608:	fe 0c       	add	r15, r14
    160a:	f1 1a       	sub	r15, r17
    160c:	1e 2d       	mov	r17, r14
    160e:	05 c0       	rjmp	.+10     	; 0x161a <vfprintf+0x308>
    1610:	80 e2       	ldi	r24, 0x20	; 32
    1612:	90 e0       	ldi	r25, 0x00	; 0
    1614:	b3 01       	movw	r22, r6
    1616:	62 d0       	rcall	.+196    	; 0x16dc <fputc>
    1618:	1f 5f       	subi	r17, 0xFF	; 255
    161a:	1e 15       	cp	r17, r14
    161c:	c8 f3       	brcs	.-14     	; 0x1610 <vfprintf+0x2fe>
    161e:	04 c0       	rjmp	.+8      	; 0x1628 <vfprintf+0x316>
    1620:	1e 15       	cp	r17, r14
    1622:	10 f4       	brcc	.+4      	; 0x1628 <vfprintf+0x316>
    1624:	e1 1a       	sub	r14, r17
    1626:	01 c0       	rjmp	.+2      	; 0x162a <vfprintf+0x318>
    1628:	ee 24       	eor	r14, r14
    162a:	84 fe       	sbrs	r8, 4
    162c:	0e c0       	rjmp	.+28     	; 0x164a <vfprintf+0x338>
    162e:	80 e3       	ldi	r24, 0x30	; 48
    1630:	90 e0       	ldi	r25, 0x00	; 0
    1632:	b3 01       	movw	r22, r6
    1634:	53 d0       	rcall	.+166    	; 0x16dc <fputc>
    1636:	82 fe       	sbrs	r8, 2
    1638:	1d c0       	rjmp	.+58     	; 0x1674 <vfprintf+0x362>
    163a:	81 fe       	sbrs	r8, 1
    163c:	03 c0       	rjmp	.+6      	; 0x1644 <vfprintf+0x332>
    163e:	88 e5       	ldi	r24, 0x58	; 88
    1640:	90 e0       	ldi	r25, 0x00	; 0
    1642:	10 c0       	rjmp	.+32     	; 0x1664 <vfprintf+0x352>
    1644:	88 e7       	ldi	r24, 0x78	; 120
    1646:	90 e0       	ldi	r25, 0x00	; 0
    1648:	0d c0       	rjmp	.+26     	; 0x1664 <vfprintf+0x352>
    164a:	c4 01       	movw	r24, r8
    164c:	86 78       	andi	r24, 0x86	; 134
    164e:	90 70       	andi	r25, 0x00	; 0
    1650:	00 97       	sbiw	r24, 0x00	; 0
    1652:	81 f0       	breq	.+32     	; 0x1674 <vfprintf+0x362>
    1654:	81 fc       	sbrc	r8, 1
    1656:	02 c0       	rjmp	.+4      	; 0x165c <vfprintf+0x34a>
    1658:	80 e2       	ldi	r24, 0x20	; 32
    165a:	01 c0       	rjmp	.+2      	; 0x165e <vfprintf+0x34c>
    165c:	8b e2       	ldi	r24, 0x2B	; 43
    165e:	07 fd       	sbrc	r16, 7
    1660:	8d e2       	ldi	r24, 0x2D	; 45
    1662:	90 e0       	ldi	r25, 0x00	; 0
    1664:	b3 01       	movw	r22, r6
    1666:	3a d0       	rcall	.+116    	; 0x16dc <fputc>
    1668:	05 c0       	rjmp	.+10     	; 0x1674 <vfprintf+0x362>
    166a:	80 e3       	ldi	r24, 0x30	; 48
    166c:	90 e0       	ldi	r25, 0x00	; 0
    166e:	b3 01       	movw	r22, r6
    1670:	35 d0       	rcall	.+106    	; 0x16dc <fputc>
    1672:	fa 94       	dec	r15
    1674:	df 14       	cp	r13, r15
    1676:	c8 f3       	brcs	.-14     	; 0x166a <vfprintf+0x358>
    1678:	da 94       	dec	r13
    167a:	f2 01       	movw	r30, r4
    167c:	ed 0d       	add	r30, r13
    167e:	f1 1d       	adc	r31, r1
    1680:	80 81       	ld	r24, Z
    1682:	90 e0       	ldi	r25, 0x00	; 0
    1684:	b3 01       	movw	r22, r6
    1686:	2a d0       	rcall	.+84     	; 0x16dc <fputc>
    1688:	dd 20       	and	r13, r13
    168a:	b1 f7       	brne	.-20     	; 0x1678 <vfprintf+0x366>
    168c:	05 c0       	rjmp	.+10     	; 0x1698 <vfprintf+0x386>
    168e:	80 e2       	ldi	r24, 0x20	; 32
    1690:	90 e0       	ldi	r25, 0x00	; 0
    1692:	b3 01       	movw	r22, r6
    1694:	23 d0       	rcall	.+70     	; 0x16dc <fputc>
    1696:	ea 94       	dec	r14
    1698:	ee 20       	and	r14, r14
    169a:	c9 f7       	brne	.-14     	; 0x168e <vfprintf+0x37c>
    169c:	4d ce       	rjmp	.-870    	; 0x1338 <vfprintf+0x26>
    169e:	f3 01       	movw	r30, r6
    16a0:	86 81       	ldd	r24, Z+6	; 0x06
    16a2:	97 81       	ldd	r25, Z+7	; 0x07
    16a4:	02 c0       	rjmp	.+4      	; 0x16aa <vfprintf+0x398>
    16a6:	8f ef       	ldi	r24, 0xFF	; 255
    16a8:	9f ef       	ldi	r25, 0xFF	; 255
    16aa:	2d 96       	adiw	r28, 0x0d	; 13
    16ac:	e2 e1       	ldi	r30, 0x12	; 18
    16ae:	bc c0       	rjmp	.+376    	; 0x1828 <__epilogue_restores__>

000016b0 <strnlen_P>:
    16b0:	fc 01       	movw	r30, r24
    16b2:	05 90       	lpm	r0, Z+
    16b4:	61 50       	subi	r22, 0x01	; 1
    16b6:	70 40       	sbci	r23, 0x00	; 0
    16b8:	01 10       	cpse	r0, r1
    16ba:	d8 f7       	brcc	.-10     	; 0x16b2 <strnlen_P+0x2>
    16bc:	80 95       	com	r24
    16be:	90 95       	com	r25
    16c0:	8e 0f       	add	r24, r30
    16c2:	9f 1f       	adc	r25, r31
    16c4:	08 95       	ret

000016c6 <strnlen>:
    16c6:	fc 01       	movw	r30, r24
    16c8:	61 50       	subi	r22, 0x01	; 1
    16ca:	70 40       	sbci	r23, 0x00	; 0
    16cc:	01 90       	ld	r0, Z+
    16ce:	01 10       	cpse	r0, r1
    16d0:	d8 f7       	brcc	.-10     	; 0x16c8 <strnlen+0x2>
    16d2:	80 95       	com	r24
    16d4:	90 95       	com	r25
    16d6:	8e 0f       	add	r24, r30
    16d8:	9f 1f       	adc	r25, r31
    16da:	08 95       	ret

000016dc <fputc>:
    16dc:	0f 93       	push	r16
    16de:	1f 93       	push	r17
    16e0:	cf 93       	push	r28
    16e2:	df 93       	push	r29
    16e4:	8c 01       	movw	r16, r24
    16e6:	eb 01       	movw	r28, r22
    16e8:	8b 81       	ldd	r24, Y+3	; 0x03
    16ea:	81 ff       	sbrs	r24, 1
    16ec:	1b c0       	rjmp	.+54     	; 0x1724 <fputc+0x48>
    16ee:	82 ff       	sbrs	r24, 2
    16f0:	0d c0       	rjmp	.+26     	; 0x170c <fputc+0x30>
    16f2:	2e 81       	ldd	r18, Y+6	; 0x06
    16f4:	3f 81       	ldd	r19, Y+7	; 0x07
    16f6:	8c 81       	ldd	r24, Y+4	; 0x04
    16f8:	9d 81       	ldd	r25, Y+5	; 0x05
    16fa:	28 17       	cp	r18, r24
    16fc:	39 07       	cpc	r19, r25
    16fe:	64 f4       	brge	.+24     	; 0x1718 <fputc+0x3c>
    1700:	e8 81       	ld	r30, Y
    1702:	f9 81       	ldd	r31, Y+1	; 0x01
    1704:	01 93       	st	Z+, r16
    1706:	f9 83       	std	Y+1, r31	; 0x01
    1708:	e8 83       	st	Y, r30
    170a:	06 c0       	rjmp	.+12     	; 0x1718 <fputc+0x3c>
    170c:	e8 85       	ldd	r30, Y+8	; 0x08
    170e:	f9 85       	ldd	r31, Y+9	; 0x09
    1710:	80 2f       	mov	r24, r16
    1712:	09 95       	icall
    1714:	00 97       	sbiw	r24, 0x00	; 0
    1716:	31 f4       	brne	.+12     	; 0x1724 <fputc+0x48>
    1718:	8e 81       	ldd	r24, Y+6	; 0x06
    171a:	9f 81       	ldd	r25, Y+7	; 0x07
    171c:	01 96       	adiw	r24, 0x01	; 1
    171e:	9f 83       	std	Y+7, r25	; 0x07
    1720:	8e 83       	std	Y+6, r24	; 0x06
    1722:	02 c0       	rjmp	.+4      	; 0x1728 <fputc+0x4c>
    1724:	0f ef       	ldi	r16, 0xFF	; 255
    1726:	1f ef       	ldi	r17, 0xFF	; 255
    1728:	c8 01       	movw	r24, r16
    172a:	df 91       	pop	r29
    172c:	cf 91       	pop	r28
    172e:	1f 91       	pop	r17
    1730:	0f 91       	pop	r16
    1732:	08 95       	ret

00001734 <__ultoa_invert>:
    1734:	fa 01       	movw	r30, r20
    1736:	aa 27       	eor	r26, r26
    1738:	28 30       	cpi	r18, 0x08	; 8
    173a:	51 f1       	breq	.+84     	; 0x1790 <__ultoa_invert+0x5c>
    173c:	20 31       	cpi	r18, 0x10	; 16
    173e:	81 f1       	breq	.+96     	; 0x17a0 <__ultoa_invert+0x6c>
    1740:	e8 94       	clt
    1742:	6f 93       	push	r22
    1744:	6e 7f       	andi	r22, 0xFE	; 254
    1746:	6e 5f       	subi	r22, 0xFE	; 254
    1748:	7f 4f       	sbci	r23, 0xFF	; 255
    174a:	8f 4f       	sbci	r24, 0xFF	; 255
    174c:	9f 4f       	sbci	r25, 0xFF	; 255
    174e:	af 4f       	sbci	r26, 0xFF	; 255
    1750:	b1 e0       	ldi	r27, 0x01	; 1
    1752:	3e d0       	rcall	.+124    	; 0x17d0 <__ultoa_invert+0x9c>
    1754:	b4 e0       	ldi	r27, 0x04	; 4
    1756:	3c d0       	rcall	.+120    	; 0x17d0 <__ultoa_invert+0x9c>
    1758:	67 0f       	add	r22, r23
    175a:	78 1f       	adc	r23, r24
    175c:	89 1f       	adc	r24, r25
    175e:	9a 1f       	adc	r25, r26
    1760:	a1 1d       	adc	r26, r1
    1762:	68 0f       	add	r22, r24
    1764:	79 1f       	adc	r23, r25
    1766:	8a 1f       	adc	r24, r26
    1768:	91 1d       	adc	r25, r1
    176a:	a1 1d       	adc	r26, r1
    176c:	6a 0f       	add	r22, r26
    176e:	71 1d       	adc	r23, r1
    1770:	81 1d       	adc	r24, r1
    1772:	91 1d       	adc	r25, r1
    1774:	a1 1d       	adc	r26, r1
    1776:	20 d0       	rcall	.+64     	; 0x17b8 <__ultoa_invert+0x84>
    1778:	09 f4       	brne	.+2      	; 0x177c <__ultoa_invert+0x48>
    177a:	68 94       	set
    177c:	3f 91       	pop	r19
    177e:	2a e0       	ldi	r18, 0x0A	; 10
    1780:	26 9f       	mul	r18, r22
    1782:	11 24       	eor	r1, r1
    1784:	30 19       	sub	r19, r0
    1786:	30 5d       	subi	r19, 0xD0	; 208
    1788:	31 93       	st	Z+, r19
    178a:	de f6       	brtc	.-74     	; 0x1742 <__ultoa_invert+0xe>
    178c:	cf 01       	movw	r24, r30
    178e:	08 95       	ret
    1790:	46 2f       	mov	r20, r22
    1792:	47 70       	andi	r20, 0x07	; 7
    1794:	40 5d       	subi	r20, 0xD0	; 208
    1796:	41 93       	st	Z+, r20
    1798:	b3 e0       	ldi	r27, 0x03	; 3
    179a:	0f d0       	rcall	.+30     	; 0x17ba <__ultoa_invert+0x86>
    179c:	c9 f7       	brne	.-14     	; 0x1790 <__ultoa_invert+0x5c>
    179e:	f6 cf       	rjmp	.-20     	; 0x178c <__ultoa_invert+0x58>
    17a0:	46 2f       	mov	r20, r22
    17a2:	4f 70       	andi	r20, 0x0F	; 15
    17a4:	40 5d       	subi	r20, 0xD0	; 208
    17a6:	4a 33       	cpi	r20, 0x3A	; 58
    17a8:	18 f0       	brcs	.+6      	; 0x17b0 <__ultoa_invert+0x7c>
    17aa:	49 5d       	subi	r20, 0xD9	; 217
    17ac:	31 fd       	sbrc	r19, 1
    17ae:	40 52       	subi	r20, 0x20	; 32
    17b0:	41 93       	st	Z+, r20
    17b2:	02 d0       	rcall	.+4      	; 0x17b8 <__ultoa_invert+0x84>
    17b4:	a9 f7       	brne	.-22     	; 0x17a0 <__ultoa_invert+0x6c>
    17b6:	ea cf       	rjmp	.-44     	; 0x178c <__ultoa_invert+0x58>
    17b8:	b4 e0       	ldi	r27, 0x04	; 4
    17ba:	a6 95       	lsr	r26
    17bc:	97 95       	ror	r25
    17be:	87 95       	ror	r24
    17c0:	77 95       	ror	r23
    17c2:	67 95       	ror	r22
    17c4:	ba 95       	dec	r27
    17c6:	c9 f7       	brne	.-14     	; 0x17ba <__ultoa_invert+0x86>
    17c8:	00 97       	sbiw	r24, 0x00	; 0
    17ca:	61 05       	cpc	r22, r1
    17cc:	71 05       	cpc	r23, r1
    17ce:	08 95       	ret
    17d0:	9b 01       	movw	r18, r22
    17d2:	ac 01       	movw	r20, r24
    17d4:	0a 2e       	mov	r0, r26
    17d6:	06 94       	lsr	r0
    17d8:	57 95       	ror	r21
    17da:	47 95       	ror	r20
    17dc:	37 95       	ror	r19
    17de:	27 95       	ror	r18
    17e0:	ba 95       	dec	r27
    17e2:	c9 f7       	brne	.-14     	; 0x17d6 <__ultoa_invert+0xa2>
    17e4:	62 0f       	add	r22, r18
    17e6:	73 1f       	adc	r23, r19
    17e8:	84 1f       	adc	r24, r20
    17ea:	95 1f       	adc	r25, r21
    17ec:	a0 1d       	adc	r26, r0
    17ee:	08 95       	ret

000017f0 <__prologue_saves__>:
    17f0:	2f 92       	push	r2
    17f2:	3f 92       	push	r3
    17f4:	4f 92       	push	r4
    17f6:	5f 92       	push	r5
    17f8:	6f 92       	push	r6
    17fa:	7f 92       	push	r7
    17fc:	8f 92       	push	r8
    17fe:	9f 92       	push	r9
    1800:	af 92       	push	r10
    1802:	bf 92       	push	r11
    1804:	cf 92       	push	r12
    1806:	df 92       	push	r13
    1808:	ef 92       	push	r14
    180a:	ff 92       	push	r15
    180c:	0f 93       	push	r16
    180e:	1f 93       	push	r17
    1810:	cf 93       	push	r28
    1812:	df 93       	push	r29
    1814:	cd b7       	in	r28, 0x3d	; 61
    1816:	de b7       	in	r29, 0x3e	; 62
    1818:	ca 1b       	sub	r28, r26
    181a:	db 0b       	sbc	r29, r27
    181c:	0f b6       	in	r0, 0x3f	; 63
    181e:	f8 94       	cli
    1820:	de bf       	out	0x3e, r29	; 62
    1822:	0f be       	out	0x3f, r0	; 63
    1824:	cd bf       	out	0x3d, r28	; 61
    1826:	09 94       	ijmp

00001828 <__epilogue_restores__>:
    1828:	2a 88       	ldd	r2, Y+18	; 0x12
    182a:	39 88       	ldd	r3, Y+17	; 0x11
    182c:	48 88       	ldd	r4, Y+16	; 0x10
    182e:	5f 84       	ldd	r5, Y+15	; 0x0f
    1830:	6e 84       	ldd	r6, Y+14	; 0x0e
    1832:	7d 84       	ldd	r7, Y+13	; 0x0d
    1834:	8c 84       	ldd	r8, Y+12	; 0x0c
    1836:	9b 84       	ldd	r9, Y+11	; 0x0b
    1838:	aa 84       	ldd	r10, Y+10	; 0x0a
    183a:	b9 84       	ldd	r11, Y+9	; 0x09
    183c:	c8 84       	ldd	r12, Y+8	; 0x08
    183e:	df 80       	ldd	r13, Y+7	; 0x07
    1840:	ee 80       	ldd	r14, Y+6	; 0x06
    1842:	fd 80       	ldd	r15, Y+5	; 0x05
    1844:	0c 81       	ldd	r16, Y+4	; 0x04
    1846:	1b 81       	ldd	r17, Y+3	; 0x03
    1848:	aa 81       	ldd	r26, Y+2	; 0x02
    184a:	b9 81       	ldd	r27, Y+1	; 0x01
    184c:	ce 0f       	add	r28, r30
    184e:	d1 1d       	adc	r29, r1
    1850:	0f b6       	in	r0, 0x3f	; 63
    1852:	f8 94       	cli
    1854:	de bf       	out	0x3e, r29	; 62
    1856:	0f be       	out	0x3f, r0	; 63
    1858:	cd bf       	out	0x3d, r28	; 61
    185a:	ed 01       	movw	r28, r26
    185c:	08 95       	ret

0000185e <_exit>:
    185e:	f8 94       	cli

00001860 <__stop_program>:
    1860:	ff cf       	rjmp	.-2      	; 0x1860 <__stop_program>
